ARM Linker, 4.1 [Build 481] [Standard]

==============================================================================

Section Cross References

    int_is.o(i.BSP_IntDis) refers to cpu_c.o(i.CPU_IntSrcDis) for CPU_IntSrcDis
    int_is.o(i.BSP_IntDisAll) refers to cpu_a.o(.text) for CPU_IntDis
    int_is.o(i.BSP_IntEn) refers to cpu_c.o(i.CPU_IntSrcEn) for CPU_IntSrcEn
    int_is.o(i.BSP_IntHandler) refers to cpu_a.o(.text) for CPU_SR_Save
    int_is.o(i.BSP_IntHandler) refers to os_core.o(i.OSIntExit) for OSIntExit
    int_is.o(i.BSP_IntHandler) refers to os_core.o(.data) for OSIntNesting
    int_is.o(i.BSP_IntHandler) refers to int_is.o(.bss) for BSP_IntVectTbl
    int_is.o(i.BSP_IntHandlerADC1_2) refers to int_is.o(i.BSP_IntHandler) for BSP_IntHandler
    int_is.o(i.BSP_IntHandlerCAN_RX1) refers to int_is.o(i.BSP_IntHandler) for BSP_IntHandler
    int_is.o(i.BSP_IntHandlerCAN_SCE) refers to int_is.o(i.BSP_IntHandler) for BSP_IntHandler
    int_is.o(i.BSP_IntHandlerDMA1_CH1) refers to int_is.o(i.BSP_IntHandler) for BSP_IntHandler
    int_is.o(i.BSP_IntHandlerDMA1_CH2) refers to int_is.o(i.BSP_IntHandler) for BSP_IntHandler
    int_is.o(i.BSP_IntHandlerDMA1_CH3) refers to int_is.o(i.BSP_IntHandler) for BSP_IntHandler
    int_is.o(i.BSP_IntHandlerDMA1_CH4) refers to int_is.o(i.BSP_IntHandler) for BSP_IntHandler
    int_is.o(i.BSP_IntHandlerDMA1_CH5) refers to int_is.o(i.BSP_IntHandler) for BSP_IntHandler
    int_is.o(i.BSP_IntHandlerDMA1_CH6) refers to int_is.o(i.BSP_IntHandler) for BSP_IntHandler
    int_is.o(i.BSP_IntHandlerDMA1_CH7) refers to int_is.o(i.BSP_IntHandler) for BSP_IntHandler
    int_is.o(i.BSP_IntHandlerEXTI0) refers to int_is.o(i.BSP_IntHandler) for BSP_IntHandler
    int_is.o(i.BSP_IntHandlerEXTI1) refers to int_is.o(i.BSP_IntHandler) for BSP_IntHandler
    int_is.o(i.BSP_IntHandlerEXTI15_10) refers to int_is.o(i.BSP_IntHandler) for BSP_IntHandler
    int_is.o(i.BSP_IntHandlerEXTI2) refers to int_is.o(i.BSP_IntHandler) for BSP_IntHandler
    int_is.o(i.BSP_IntHandlerEXTI3) refers to int_is.o(i.BSP_IntHandler) for BSP_IntHandler
    int_is.o(i.BSP_IntHandlerEXTI4) refers to int_is.o(i.BSP_IntHandler) for BSP_IntHandler
    int_is.o(i.BSP_IntHandlerEXTI9_5) refers to int_is.o(i.BSP_IntHandler) for BSP_IntHandler
    int_is.o(i.BSP_IntHandlerFLASH) refers to int_is.o(i.BSP_IntHandler) for BSP_IntHandler
    int_is.o(i.BSP_IntHandlerI2C1_ER) refers to int_is.o(i.BSP_IntHandler) for BSP_IntHandler
    int_is.o(i.BSP_IntHandlerI2C1_EV) refers to int_is.o(i.BSP_IntHandler) for BSP_IntHandler
    int_is.o(i.BSP_IntHandlerI2C2_ER) refers to int_is.o(i.BSP_IntHandler) for BSP_IntHandler
    int_is.o(i.BSP_IntHandlerI2C2_EV) refers to int_is.o(i.BSP_IntHandler) for BSP_IntHandler
    int_is.o(i.BSP_IntHandlerPVD) refers to int_is.o(i.BSP_IntHandler) for BSP_IntHandler
    int_is.o(i.BSP_IntHandlerRCC) refers to int_is.o(i.BSP_IntHandler) for BSP_IntHandler
    int_is.o(i.BSP_IntHandlerRTC) refers to int_is.o(i.BSP_IntHandler) for BSP_IntHandler
    int_is.o(i.BSP_IntHandlerRTCAlarm) refers to int_is.o(i.BSP_IntHandler) for BSP_IntHandler
    int_is.o(i.BSP_IntHandlerSPI1) refers to int_is.o(i.BSP_IntHandler) for BSP_IntHandler
    int_is.o(i.BSP_IntHandlerSPI2) refers to int_is.o(i.BSP_IntHandler) for BSP_IntHandler
    int_is.o(i.BSP_IntHandlerTAMPER) refers to int_is.o(i.BSP_IntHandler) for BSP_IntHandler
    int_is.o(i.BSP_IntHandlerTIM1_BRK) refers to int_is.o(i.BSP_IntHandler) for BSP_IntHandler
    int_is.o(i.BSP_IntHandlerTIM1_CC) refers to int_is.o(i.BSP_IntHandler) for BSP_IntHandler
    int_is.o(i.BSP_IntHandlerTIM1_TRG_COM) refers to int_is.o(i.BSP_IntHandler) for BSP_IntHandler
    int_is.o(i.BSP_IntHandlerTIM1_UP) refers to int_is.o(i.BSP_IntHandler) for BSP_IntHandler
    int_is.o(i.BSP_IntHandlerTIM2) refers to int_is.o(i.BSP_IntHandler) for BSP_IntHandler
    int_is.o(i.BSP_IntHandlerTIM3) refers to int_is.o(i.BSP_IntHandler) for BSP_IntHandler
    int_is.o(i.BSP_IntHandlerTIM4) refers to int_is.o(i.BSP_IntHandler) for BSP_IntHandler
    int_is.o(i.BSP_IntHandlerUSART1) refers to int_is.o(i.BSP_IntHandler) for BSP_IntHandler
    int_is.o(i.BSP_IntHandlerUSART2) refers to int_is.o(i.BSP_IntHandler) for BSP_IntHandler
    int_is.o(i.BSP_IntHandlerUSART3) refers to int_is.o(i.BSP_IntHandler) for BSP_IntHandler
    int_is.o(i.BSP_IntHandlerUSBWakeUp) refers to int_is.o(i.BSP_IntHandler) for BSP_IntHandler
    int_is.o(i.BSP_IntHandlerUSB_HP_CAN_TX) refers to int_is.o(i.BSP_IntHandler) for BSP_IntHandler
    int_is.o(i.BSP_IntHandlerUSB_LP_CAN_RX0) refers to int_is.o(i.BSP_IntHandler) for BSP_IntHandler
    int_is.o(i.BSP_IntHandlerWWDG) refers to int_is.o(i.BSP_IntHandler) for BSP_IntHandler
    int_is.o(i.BSP_IntInit) refers to int_is.o(i.BSP_IntVectSet) for BSP_IntVectSet
    int_is.o(i.BSP_IntInit) refers to int_is.o(i.BSP_IntHandlerDummy) for BSP_IntHandlerDummy
    int_is.o(i.BSP_IntInit) refers to int_is.o(i.ISR_nRF_IR) for ISR_nRF_IR
    int_is.o(i.BSP_IntInit) refers to int_is.o(i.ISR_ADC1DMA) for ISR_ADC1DMA
    int_is.o(i.BSP_IntInit) refers to int_is.o(i.ISR_USBRX0) for ISR_USBRX0
    int_is.o(i.BSP_IntPrioSet) refers to cpu_a.o(.text) for CPU_SR_Save
    int_is.o(i.BSP_IntPrioSet) refers to cpu_c.o(i.CPU_IntSrcPrioSet) for CPU_IntSrcPrioSet
    int_is.o(i.BSP_IntVectSet) refers to cpu_a.o(.text) for CPU_SR_Save
    int_is.o(i.BSP_IntVectSet) refers to int_is.o(.bss) for BSP_IntVectTbl
    int_is.o(i.ISR_ADC1DMA) refers to stm32f10x_dma.o(i.DMA_GetITStatus) for DMA_GetITStatus
    int_is.o(i.ISR_ADC1DMA) refers to stm32f10x_dma.o(i.DMA_ClearITPendingBit) for DMA_ClearITPendingBit
    int_is.o(i.ISR_USBRX0) refers to usb_istr.o(i.USB_Istr) for USB_Istr
    int_is.o(i.ISR_nRF_IR) refers to stm32f10x_exti.o(i.EXTI_GetITStatus) for EXTI_GetITStatus
    int_is.o(i.ISR_nRF_IR) refers to pulses.o(i.Pulse_capture) for Pulse_capture
    int_is.o(i.ISR_nRF_IR) refers to stm32f10x_exti.o(i.EXTI_ClearITPendingBit) for EXTI_ClearITPendingBit
    int_is.o(i.ISR_nRF_IR) refers to nrf24l01.o(i.processIRQ_nRF24L01) for processIRQ_nRF24L01
    int_is.o(i.ISR_nRF_IR) refers to bsp_isv2.o(i.ISBoard_setLed) for ISBoard_setLed
    int_is.o(i.ISR_nRF_IR) refers to common.o(i.delayXmsec) for delayXmsec
    int_is.o(i.ISR_nRF_IR) refers to bsp_isv2.o(i.irRecvBit) for irRecvBit
    int_is.o(i.ISR_nRF_IR) refers to int_is.o(.data) for pulseCapBuf
    int_is.o(i.ISR_nRF_IR) refers to tasks_usbcli.o(.data) for nrf24l01
    int_is.o(.data) refers to int_is.o(.bss) for plusseq
    usb_endp.o(i.EP1_IN_Callback) refers to usb_endp.o(.data) for count_in
    usb_endp.o(i.EP3_OUT_Callback) refers to usb_regs.o(i.GetEPRxCount) for GetEPRxCount
    usb_endp.o(i.EP3_OUT_Callback) refers to usb_mem.o(i.PMAToUserBufferCopy) for PMAToUserBufferCopy
    usb_endp.o(i.EP3_OUT_Callback) refers to usb_regs.o(i.SetEPRxValid) for SetEPRxValid
    usb_endp.o(i.EP3_OUT_Callback) refers to usb_endp.o(.data) for count_out
    usb_endp.o(i.EP3_OUT_Callback) refers to usb_endp.o(.bss) for buffer_out
    usb_istr.o(i.USB_Istr) refers to usb_int.o(i.CTR_LP) for CTR_LP
    usb_istr.o(i.USB_Istr) refers to usb_istr.o(.data) for wIstr
    usb_istr.o(i.USB_Istr) refers to usb_init.o(.data) for wInterrupt_Mask
    usb_istr.o(i.USB_Istr) refers to usb_prop.o(.data) for Device_Property
    usb_istr.o(.data) refers to usb_endp.o(i.EP1_IN_Callback) for EP1_IN_Callback
    usb_istr.o(.data) refers to usb_core.o(i.NOP_Process) for NOP_Process
    usb_istr.o(.data) refers to usb_endp.o(i.EP3_OUT_Callback) for EP3_OUT_Callback
    usb_prop.o(i.Virtual_Com_Port_Data_Setup) refers to usb_init.o(.data) for pInformation
    usb_prop.o(i.Virtual_Com_Port_Data_Setup) refers to usb_prop.o(i.Virtual_Com_Port_GetLineCoding) for Virtual_Com_Port_GetLineCoding
    usb_prop.o(i.Virtual_Com_Port_Data_Setup) refers to usb_prop.o(i.Virtual_Com_Port_SetLineCoding) for Virtual_Com_Port_SetLineCoding
    usb_prop.o(i.Virtual_Com_Port_Data_Setup) refers to usb_prop.o(.data) for Request
    usb_prop.o(i.Virtual_Com_Port_GetConfigDescriptor) refers to usb_core.o(i.Standard_GetDescriptorData) for Standard_GetDescriptorData
    usb_prop.o(i.Virtual_Com_Port_GetConfigDescriptor) refers to usb_prop.o(.data) for Config_Descriptor
    usb_prop.o(i.Virtual_Com_Port_GetDeviceDescriptor) refers to usb_core.o(i.Standard_GetDescriptorData) for Standard_GetDescriptorData
    usb_prop.o(i.Virtual_Com_Port_GetDeviceDescriptor) refers to usb_prop.o(.data) for Device_Descriptor
    usb_prop.o(i.Virtual_Com_Port_GetLineCoding) refers to usb_init.o(.data) for pInformation
    usb_prop.o(i.Virtual_Com_Port_GetLineCoding) refers to usb_prop.o(.data) for linecoding
    usb_prop.o(i.Virtual_Com_Port_GetStringDescriptor) refers to usb_core.o(i.Standard_GetDescriptorData) for Standard_GetDescriptorData
    usb_prop.o(i.Virtual_Com_Port_GetStringDescriptor) refers to usb_init.o(.data) for pInformation
    usb_prop.o(i.Virtual_Com_Port_GetStringDescriptor) refers to usb_prop.o(.data) for String_Descriptor
    usb_prop.o(i.Virtual_Com_Port_NoData_Setup) refers to usb_init.o(.data) for pInformation
    usb_prop.o(i.Virtual_Com_Port_Reset) refers to usb_regs.o(i.SetBTABLE) for SetBTABLE
    usb_prop.o(i.Virtual_Com_Port_Reset) refers to usb_regs.o(i.SetEPType) for SetEPType
    usb_prop.o(i.Virtual_Com_Port_Reset) refers to usb_regs.o(i.SetEPTxStatus) for SetEPTxStatus
    usb_prop.o(i.Virtual_Com_Port_Reset) refers to usb_regs.o(i.SetEPRxAddr) for SetEPRxAddr
    usb_prop.o(i.Virtual_Com_Port_Reset) refers to usb_regs.o(i.SetEPTxAddr) for SetEPTxAddr
    usb_prop.o(i.Virtual_Com_Port_Reset) refers to usb_regs.o(i.Clear_Status_Out) for Clear_Status_Out
    usb_prop.o(i.Virtual_Com_Port_Reset) refers to usb_regs.o(i.SetEPRxCount) for SetEPRxCount
    usb_prop.o(i.Virtual_Com_Port_Reset) refers to usb_regs.o(i.SetEPRxValid) for SetEPRxValid
    usb_prop.o(i.Virtual_Com_Port_Reset) refers to usb_regs.o(i.SetEPRxStatus) for SetEPRxStatus
    usb_prop.o(i.Virtual_Com_Port_Reset) refers to usb_core.o(i.SetDeviceAddress) for SetDeviceAddress
    usb_prop.o(i.Virtual_Com_Port_Reset) refers to usb_init.o(.data) for pInformation
    usb_prop.o(i.Virtual_Com_Port_Reset) refers to usb_prop.o(.data) for Device_Property
    usb_prop.o(i.Virtual_Com_Port_SetLineCoding) refers to usb_init.o(.data) for pInformation
    usb_prop.o(i.Virtual_Com_Port_SetLineCoding) refers to usb_prop.o(.data) for linecoding
    usb_prop.o(i.Virtual_Com_Port_Status_In) refers to usb_prop.o(.data) for Request
    usb_prop.o(i.Virtual_Com_Port_init) refers to usb_pwr.o(i.PowerOn) for PowerOn
    usb_prop.o(i.Virtual_Com_Port_init) refers to os_time.o(i.OSTimeDlyHMSM) for OSTimeDlyHMSM
    usb_prop.o(i.Virtual_Com_Port_init) refers to usb_init.o(.data) for pInformation
    usb_prop.o(i.Virtual_Com_Port_init) refers to usb_desc.o(.constdata) for Virtual_Com_Port_ConfigDescriptor
    usb_prop.o(i.Virtual_Com_Port_init) refers to usb_pwr.o(.data) for bDeviceState
    usb_prop.o(.data) refers to usb_prop.o(i.Virtual_Com_Port_init) for Virtual_Com_Port_init
    usb_prop.o(.data) refers to usb_prop.o(i.Virtual_Com_Port_Reset) for Virtual_Com_Port_Reset
    usb_prop.o(.data) refers to usb_prop.o(i.Virtual_Com_Port_Status_In) for Virtual_Com_Port_Status_In
    usb_prop.o(.data) refers to usb_prop.o(i.Virtual_Com_Port_Status_Out) for Virtual_Com_Port_Status_Out
    usb_prop.o(.data) refers to usb_prop.o(i.Virtual_Com_Port_Data_Setup) for Virtual_Com_Port_Data_Setup
    usb_prop.o(.data) refers to usb_prop.o(i.Virtual_Com_Port_NoData_Setup) for Virtual_Com_Port_NoData_Setup
    usb_prop.o(.data) refers to usb_prop.o(i.Virtual_Com_Port_Get_Interface_Setting) for Virtual_Com_Port_Get_Interface_Setting
    usb_prop.o(.data) refers to usb_prop.o(i.Virtual_Com_Port_GetDeviceDescriptor) for Virtual_Com_Port_GetDeviceDescriptor
    usb_prop.o(.data) refers to usb_prop.o(i.Virtual_Com_Port_GetConfigDescriptor) for Virtual_Com_Port_GetConfigDescriptor
    usb_prop.o(.data) refers to usb_prop.o(i.Virtual_Com_Port_GetStringDescriptor) for Virtual_Com_Port_GetStringDescriptor
    usb_prop.o(.data) refers to usb_core.o(i.NOP_Process) for NOP_Process
    usb_prop.o(.data) refers to usb_desc.o(.constdata) for Virtual_Com_Port_DeviceDescriptor
    usb_pwr.o(i.PowerOff) refers to bsp_isv2.o(i.USB_Cable_Config) for USB_Cable_Config
    usb_pwr.o(i.PowerOn) refers to bsp_isv2.o(i.USB_Cable_Config) for USB_Cable_Config
    usb_pwr.o(i.PowerOn) refers to usb_init.o(.data) for wInterrupt_Mask
    usb_pwr.o(i.Resume) refers to usb_pwr.o(i.Resume_Init) for Resume_Init
    usb_pwr.o(i.Resume) refers to usb_pwr.o(.data) for ResumeS
    usb_pwr.o(i.Resume_Init) refers to bsp_isv2.o(i.Leave_LowPowerMode) for Leave_LowPowerMode
    usb_pwr.o(i.Suspend) refers to bsp_isv2.o(i.Enter_LowPowerMode) for Enter_LowPowerMode
    bsp_isv2.o(i.BSP_CPU_ClkFreq) refers to stm32f10x_rcc.o(i.RCC_GetClocksFreq) for RCC_GetClocksFreq
    bsp_isv2.o(i.BSP_Init) refers to bsp_isv2.o(i.ISBoard_RCC_Config) for ISBoard_RCC_Config
    bsp_isv2.o(i.BSP_Init) refers to bsp_isv2.o(i.ISBoard_GPIO_Config) for ISBoard_GPIO_Config
    bsp_isv2.o(i.BSP_Init) refers to bsp_isv2.o(i.ISBoard_RTC_Init) for ISBoard_RTC_Init
    bsp_isv2.o(i.BSP_Init) refers to bsp_isv2.o(i.ISBoard_NVIC_Config) for ISBoard_NVIC_Config
    bsp_isv2.o(i.BSP_Init) refers to bsp_isv2.o(i.USART_open) for USART_open
    bsp_isv2.o(i.BSP_Start) refers to stm32f10x_adc.o(i.ADC_SoftwareStartConvCmd) for ADC_SoftwareStartConvCmd
    bsp_isv2.o(i.ISBoard_485sendMode) refers to stm32f10x_gpio.o(i.GPIO_WriteBit) for GPIO_WriteBit
    bsp_isv2.o(i.ISBoard_GPIO_Config) refers to stm32f10x_gpio.o(i.GPIO_Init) for GPIO_Init
    bsp_isv2.o(i.ISBoard_GPIO_Config) refers to bsp_isv2.o(i.ISBoard_setLed) for ISBoard_setLed
    bsp_isv2.o(i.ISBoard_GPIO_Config) refers to bsp_isv2.o(i.ISBoard_setDvr) for ISBoard_setDvr
    bsp_isv2.o(i.ISBoard_GPIO_Config) refers to ds18b20.o(i.DS18B20_InitConfiguration) for DS18B20_InitConfiguration
    bsp_isv2.o(i.ISBoard_GPIO_Config) refers to 1wire.o(i.OWPortal_reset) for OWPortal_reset
    bsp_isv2.o(i.ISBoard_GPIO_Config) refers to stm32f10x_dma.o(i.DMA_DeInit) for DMA_DeInit
    bsp_isv2.o(i.ISBoard_GPIO_Config) refers to stm32f10x_dma.o(i.DMA_Init) for DMA_Init
    bsp_isv2.o(i.ISBoard_GPIO_Config) refers to stm32f10x_dma.o(i.DMA_ITConfig) for DMA_ITConfig
    bsp_isv2.o(i.ISBoard_GPIO_Config) refers to stm32f10x_dma.o(i.DMA_Cmd) for DMA_Cmd
    bsp_isv2.o(i.ISBoard_GPIO_Config) refers to stm32f10x_adc.o(i.ADC_Init) for ADC_Init
    bsp_isv2.o(i.ISBoard_GPIO_Config) refers to stm32f10x_adc.o(i.ADC_RegularChannelConfig) for ADC_RegularChannelConfig
    bsp_isv2.o(i.ISBoard_GPIO_Config) refers to stm32f10x_adc.o(i.ADC_TempSensorVrefintCmd) for ADC_TempSensorVrefintCmd
    bsp_isv2.o(i.ISBoard_GPIO_Config) refers to stm32f10x_adc.o(i.ADC_DMACmd) for ADC_DMACmd
    bsp_isv2.o(i.ISBoard_GPIO_Config) refers to stm32f10x_adc.o(i.ADC_Cmd) for ADC_Cmd
    bsp_isv2.o(i.ISBoard_GPIO_Config) refers to stm32f10x_adc.o(i.ADC_ResetCalibration) for ADC_ResetCalibration
    bsp_isv2.o(i.ISBoard_GPIO_Config) refers to stm32f10x_adc.o(i.ADC_GetResetCalibrationStatus) for ADC_GetResetCalibrationStatus
    bsp_isv2.o(i.ISBoard_GPIO_Config) refers to stm32f10x_adc.o(i.ADC_StartCalibration) for ADC_StartCalibration
    bsp_isv2.o(i.ISBoard_GPIO_Config) refers to stm32f10x_adc.o(i.ADC_GetCalibrationStatus) for ADC_GetCalibrationStatus
    bsp_isv2.o(i.ISBoard_GPIO_Config) refers to stm32f10x_spi.o(i.SPI_Init) for SPI_Init
    bsp_isv2.o(i.ISBoard_GPIO_Config) refers to stm32f10x_spi.o(i.SPI_Cmd) for SPI_Cmd
    bsp_isv2.o(i.ISBoard_GPIO_Config) refers to stm32f10x_exti.o(i.EXTI_DeInit) for EXTI_DeInit
    bsp_isv2.o(i.ISBoard_GPIO_Config) refers to stm32f10x_exti.o(i.EXTI_StructInit) for EXTI_StructInit
    bsp_isv2.o(i.ISBoard_GPIO_Config) refers to stm32f10x_gpio.o(i.GPIO_EXTILineConfig) for GPIO_EXTILineConfig
    bsp_isv2.o(i.ISBoard_GPIO_Config) refers to stm32f10x_exti.o(i.EXTI_Init) for EXTI_Init
    bsp_isv2.o(i.ISBoard_GPIO_Config) refers to stm32f10x_exti.o(i.EXTI_ClearITPendingBit) for EXTI_ClearITPendingBit
    bsp_isv2.o(i.ISBoard_GPIO_Config) refers to stm32f10x_exti.o(i.EXTI_GenerateSWInterrupt) for EXTI_GenerateSWInterrupt
    bsp_isv2.o(i.ISBoard_GPIO_Config) refers to bsp_isv2.o(.constdata) for OnBoardLEDs
    bsp_isv2.o(i.ISBoard_GPIO_Config) refers to bsp_isv2.o(.bss) for ds18b20
    bsp_isv2.o(i.ISBoard_GPIO_Config) refers to tasks_usbcli.o(.data) for ADC_DMAbuf
    bsp_isv2.o(i.ISBoard_NVIC_Config) refers to misc.o(i.NVIC_SetVectorTable) for NVIC_SetVectorTable
    bsp_isv2.o(i.ISBoard_NVIC_Config) refers to misc.o(i.NVIC_PriorityGroupConfig) for NVIC_PriorityGroupConfig
    bsp_isv2.o(i.ISBoard_NVIC_Config) refers to misc.o(i.NVIC_Init) for NVIC_Init
    bsp_isv2.o(i.ISBoard_RCC_Config) refers to stm32f10x_rcc.o(i.RCC_DeInit) for RCC_DeInit
    bsp_isv2.o(i.ISBoard_RCC_Config) refers to stm32f10x_rcc.o(i.RCC_HSEConfig) for RCC_HSEConfig
    bsp_isv2.o(i.ISBoard_RCC_Config) refers to stm32f10x_rcc.o(i.RCC_WaitForHSEStartUp) for RCC_WaitForHSEStartUp
    bsp_isv2.o(i.ISBoard_RCC_Config) refers to stm32f10x_flash.o(i.FLASH_PrefetchBufferCmd) for FLASH_PrefetchBufferCmd
    bsp_isv2.o(i.ISBoard_RCC_Config) refers to stm32f10x_flash.o(i.FLASH_SetLatency) for FLASH_SetLatency
    bsp_isv2.o(i.ISBoard_RCC_Config) refers to stm32f10x_rcc.o(i.RCC_HCLKConfig) for RCC_HCLKConfig
    bsp_isv2.o(i.ISBoard_RCC_Config) refers to stm32f10x_rcc.o(i.RCC_PCLK2Config) for RCC_PCLK2Config
    bsp_isv2.o(i.ISBoard_RCC_Config) refers to stm32f10x_rcc.o(i.RCC_PCLK1Config) for RCC_PCLK1Config
    bsp_isv2.o(i.ISBoard_RCC_Config) refers to stm32f10x_rcc.o(i.RCC_PLLConfig) for RCC_PLLConfig
    bsp_isv2.o(i.ISBoard_RCC_Config) refers to stm32f10x_rcc.o(i.RCC_PLLCmd) for RCC_PLLCmd
    bsp_isv2.o(i.ISBoard_RCC_Config) refers to stm32f10x_rcc.o(i.RCC_GetFlagStatus) for RCC_GetFlagStatus
    bsp_isv2.o(i.ISBoard_RCC_Config) refers to stm32f10x_rcc.o(i.RCC_SYSCLKConfig) for RCC_SYSCLKConfig
    bsp_isv2.o(i.ISBoard_RCC_Config) refers to stm32f10x_rcc.o(i.RCC_GetSYSCLKSource) for RCC_GetSYSCLKSource
    bsp_isv2.o(i.ISBoard_RCC_Config) refers to stm32f10x_rcc.o(i.RCC_APB2PeriphClockCmd) for RCC_APB2PeriphClockCmd
    bsp_isv2.o(i.ISBoard_RCC_Config) refers to stm32f10x_rcc.o(i.RCC_APB1PeriphClockCmd) for RCC_APB1PeriphClockCmd
    bsp_isv2.o(i.ISBoard_RCC_Config) refers to stm32f10x_rcc.o(i.RCC_AHBPeriphClockCmd) for RCC_AHBPeriphClockCmd
    bsp_isv2.o(i.ISBoard_RTC_Init) refers to stm32f10x_bkp.o(i.BKP_ReadBackupRegister) for BKP_ReadBackupRegister
    bsp_isv2.o(i.ISBoard_RTC_Init) refers to stm32f10x_rcc.o(i.RCC_APB1PeriphClockCmd) for RCC_APB1PeriphClockCmd
    bsp_isv2.o(i.ISBoard_RTC_Init) refers to stm32f10x_pwr.o(i.PWR_BackupAccessCmd) for PWR_BackupAccessCmd
    bsp_isv2.o(i.ISBoard_RTC_Init) refers to stm32f10x_bkp.o(i.BKP_DeInit) for BKP_DeInit
    bsp_isv2.o(i.ISBoard_RTC_Init) refers to stm32f10x_rcc.o(i.RCC_LSEConfig) for RCC_LSEConfig
    bsp_isv2.o(i.ISBoard_RTC_Init) refers to stm32f10x_rcc.o(i.RCC_GetFlagStatus) for RCC_GetFlagStatus
    bsp_isv2.o(i.ISBoard_RTC_Init) refers to stm32f10x_rcc.o(i.RCC_RTCCLKConfig) for RCC_RTCCLKConfig
    bsp_isv2.o(i.ISBoard_RTC_Init) refers to stm32f10x_rcc.o(i.RCC_RTCCLKCmd) for RCC_RTCCLKCmd
    bsp_isv2.o(i.ISBoard_RTC_Init) refers to stm32f10x_rtc.o(i.RTC_WaitForSynchro) for RTC_WaitForSynchro
    bsp_isv2.o(i.ISBoard_RTC_Init) refers to stm32f10x_rtc.o(i.RTC_WaitForLastTask) for RTC_WaitForLastTask
    bsp_isv2.o(i.ISBoard_RTC_Init) refers to stm32f10x_rtc.o(i.RTC_ITConfig) for RTC_ITConfig
    bsp_isv2.o(i.ISBoard_RTC_Init) refers to stm32f10x_rtc.o(i.RTC_SetPrescaler) for RTC_SetPrescaler
    bsp_isv2.o(i.ISBoard_RTC_Init) refers to bsp_isv2.o(i.ISBoard_updateClock) for ISBoard_updateClock
    bsp_isv2.o(i.ISBoard_RTC_Init) refers to stm32f10x_bkp.o(i.BKP_WriteBackupRegister) for BKP_WriteBackupRegister
    bsp_isv2.o(i.ISBoard_RTC_Init) refers to stm32f10x_rcc.o(i.RCC_ClearFlag) for RCC_ClearFlag
    bsp_isv2.o(i.ISBoard_getTime) refers to stm32f10x_rtc.o(i.RTC_GetCounter) for RTC_GetCounter
    bsp_isv2.o(i.ISBoard_reset) refers to bsp_isv2.o(i.ISBoard_setLed) for ISBoard_setLed
    bsp_isv2.o(i.ISBoard_reset) refers to common.o(i.delayXmsec) for delayXmsec
    bsp_isv2.o(i.ISBoard_setDvr) refers to stm32f10x_gpio.o(i.GPIO_WriteBit) for GPIO_WriteBit
    bsp_isv2.o(i.ISBoard_setDvr) refers to bsp_isv2.o(.constdata) for OnBoardDvrs
    bsp_isv2.o(i.ISBoard_setLed) refers to stm32f10x_gpio.o(i.GPIO_WriteBit) for GPIO_WriteBit
    bsp_isv2.o(i.ISBoard_setLed) refers to bsp_isv2.o(.constdata) for OnBoardLEDs
    bsp_isv2.o(i.ISBoard_updateClock) refers to bsp_isv2.o(i.ISBoard_getTime) for ISBoard_getTime
    bsp_isv2.o(i.ISBoard_updateClock) refers to stm32f10x_rtc.o(i.RTC_WaitForLastTask) for RTC_WaitForLastTask
    bsp_isv2.o(i.ISBoard_updateClock) refers to stm32f10x_rtc.o(i.RTC_SetCounter) for RTC_SetCounter
    bsp_isv2.o(i.OS_CPU_SysTickClkFreq) refers to bsp_isv2.o(i.BSP_CPU_ClkFreq) for BSP_CPU_ClkFreq
    bsp_isv2.o(i.OWPortal_dqH) refers to stm32f10x_gpio.o(i.GPIO_SetBits) for GPIO_SetBits
    bsp_isv2.o(i.OWPortal_dqL) refers to stm32f10x_gpio.o(i.GPIO_ResetBits) for GPIO_ResetBits
    bsp_isv2.o(i.OWPortal_dqV) refers to stm32f10x_gpio.o(i.GPIO_ReadInputDataBit) for GPIO_ReadInputDataBit
    bsp_isv2.o(i.Set_USBClock) refers to stm32f10x_rcc.o(i.RCC_USBCLKConfig) for RCC_USBCLKConfig
    bsp_isv2.o(i.Set_USBClock) refers to stm32f10x_rcc.o(i.RCC_APB1PeriphClockCmd) for RCC_APB1PeriphClockCmd
    bsp_isv2.o(i.USART_open) refers to stm32f10x_usart.o(i.USART_ClockInit) for USART_ClockInit
    bsp_isv2.o(i.USART_open) refers to stm32f10x_usart.o(i.USART_Init) for USART_Init
    bsp_isv2.o(i.USART_open) refers to stm32f10x_usart.o(i.USART_Cmd) for USART_Cmd
    bsp_isv2.o(i.USB_Cable_Config) refers to bsp_isv2.o(i.ISBoard_setLed) for ISBoard_setLed
    bsp_isv2.o(i.enablePWM) refers to stm32f10x_tim.o(i.TIM_DeInit) for TIM_DeInit
    bsp_isv2.o(i.enablePWM) refers to stm32f10x_tim.o(i.TIM_TimeBaseInit) for TIM_TimeBaseInit
    bsp_isv2.o(i.enablePWM) refers to stm32f10x_tim.o(i.TIM_OC1Init) for TIM_OC1Init
    bsp_isv2.o(i.enablePWM) refers to stm32f10x_tim.o(i.TIM_Cmd) for TIM_Cmd
    bsp_isv2.o(i.enablePWM) refers to stm32f10x_tim.o(i.TIM_CtrlPWMOutputs) for TIM_CtrlPWMOutputs
    bsp_isv2.o(i.fputc) refers to bsp_isv2.o(i.ISBoard_485sendMode) for ISBoard_485sendMode
    bsp_isv2.o(i.fputc) refers to stm32f10x_usart.o(i.USART_SendData) for USART_SendData
    bsp_isv2.o(i.fputc) refers to bsp_isv2.o(.data) for f485
    bsp_isv2.o(i.irRecvBit) refers to stm32f10x_gpio.o(i.GPIO_ReadInputDataBit) for GPIO_ReadInputDataBit
    bsp_isv2.o(i.motionState) refers to stm32f10x_gpio.o(i.GPIO_ReadInputDataBit) for GPIO_ReadInputDataBit
    bsp_isv2.o(i.motionState) refers to bsp_isv2.o(.constdata) for MotionBit
    1wire.o(i.OWFamilySkipSetup) refers to 1wire.o(.data) for LastFamilyDiscrepancy
    1wire.o(i.OWFirst) refers to 1wire.o(i.OWSearch) for OWSearch
    1wire.o(i.OWFirst) refers to 1wire.o(.data) for LastDiscrepancy
    1wire.o(i.OWNext) refers to 1wire.o(i.OWSearch) for OWSearch
    1wire.o(i.OWNext) refers to 1wire.o(.data) for ROM_NO
    1wire.o(i.OWPortal_readBit) refers to bsp_isv2.o(i.OWPortal_dqL) for OWPortal_dqL
    1wire.o(i.OWPortal_readBit) refers to common.o(i.delayXusec) for delayXusec
    1wire.o(i.OWPortal_readBit) refers to bsp_isv2.o(i.OWPortal_dqH) for OWPortal_dqH
    1wire.o(i.OWPortal_readBit) refers to bsp_isv2.o(i.OWPortal_dqV) for OWPortal_dqV
    1wire.o(i.OWPortal_reset) refers to bsp_isv2.o(i.OWPortal_dqH) for OWPortal_dqH
    1wire.o(i.OWPortal_reset) refers to common.o(i.delayXusec) for delayXusec
    1wire.o(i.OWPortal_reset) refers to bsp_isv2.o(i.OWPortal_dqL) for OWPortal_dqL
    1wire.o(i.OWPortal_reset) refers to bsp_isv2.o(i.OWPortal_dqV) for OWPortal_dqV
    1wire.o(i.OWPortal_writeBit) refers to bsp_isv2.o(i.OWPortal_dqL) for OWPortal_dqL
    1wire.o(i.OWPortal_writeBit) refers to common.o(i.delayXusec) for delayXusec
    1wire.o(i.OWPortal_writeBit) refers to bsp_isv2.o(i.OWPortal_dqH) for OWPortal_dqH
    1wire.o(i.OWReadByte) refers to 1wire.o(i.OWPortal_readBit) for OWPortal_readBit
    1wire.o(i.OWScanBusForDevices) refers to 1wire.o(i.OWFirst) for OWFirst
    1wire.o(i.OWScanBusForDevices) refers to 1wire.o(i.OWNext) for OWNext
    1wire.o(i.OWSearch) refers to 1wire.o(i.OWPortal_reset) for OWPortal_reset
    1wire.o(i.OWSearch) refers to 1wire.o(i.OWWriteByte) for OWWriteByte
    1wire.o(i.OWSearch) refers to 1wire.o(i.OWPortal_readBit) for OWPortal_readBit
    1wire.o(i.OWSearch) refers to 1wire.o(i.OWPortal_writeBit) for OWPortal_writeBit
    1wire.o(i.OWSearch) refers to 1wire.o(i.docrc8) for docrc8
    1wire.o(i.OWSearch) refers to 1wire.o(.data) for crc8
    1wire.o(i.OWTargetSetup) refers to 1wire.o(.data) for ROM_NO
    1wire.o(i.OWVerify) refers to 1wire.o(i.OWSearch) for OWSearch
    1wire.o(i.OWVerify) refers to memcmp.o(.text) for memcmp
    1wire.o(i.OWVerify) refers to 1wire.o(.data) for ROM_NO
    1wire.o(i.OWWriteByte) refers to 1wire.o(i.OWPortal_writeBit) for OWPortal_writeBit
    1wire.o(i.docrc8) refers to 1wire.o(.data) for crc8
    common.o(i.MsgLine_recv) refers to common.o(.bss) for _pendingLines
    common.o(i.Timer_OnTick) refers to common.o(.bss) for timer_tbl
    common.o(i.Timer_OnTick) refers to common.o(.data) for timer_bitmap_enable
    common.o(i.Timer_init) refers to common.o(.data) for timer_bitmap_inPending
    common.o(i.Timer_init) refers to common.o(.bss) for timer_tbl
    common.o(i.Timer_isStepping) refers to common.o(.bss) for timer_tbl
    common.o(i.Timer_isStepping) refers to common.o(.data) for timer_bitmap_enable
    common.o(i.Timer_scan) refers to common.o(.bss) for timer_tbl
    common.o(i.Timer_scan) refers to common.o(.data) for timer_bitmap_inPending
    common.o(i.Timer_start) refers to common.o(.bss) for timer_tbl
    common.o(i.Timer_start) refers to common.o(.data) for timer_bitmap_inPending
    common.o(i.Timer_stop) refers to common.o(.data) for timer_bitmap_enable
    common.o(i.Timer_stop) refers to common.o(.bss) for timer_tbl
    common.o(i.delayXmsec) refers to common.o(i.Timer_start) for Timer_start
    common.o(i.delayXmsec) refers to common.o(i.Timer_isStepping) for Timer_isStepping
    common.o(i.delayXmsec) refers to common.o(i.Timer_stop) for Timer_stop
    common.o(i.hex2int) refers to common.o(i.hexchval) for hexchval
    common.o(i.hexchar) refers to common.o(.constdata) for hextbl
    ds18b20.o(i.DS18B20_convert) refers to 1wire.o(i.OWPortal_reset) for OWPortal_reset
    ds18b20.o(i.DS18B20_convert) refers to 1wire.o(i.OWWriteByte) for OWWriteByte
    ds18b20.o(i.DS18B20_read) refers to 1wire.o(i.OWPortal_reset) for OWPortal_reset
    ds18b20.o(i.DS18B20_read) refers to 1wire.o(i.OWWriteByte) for OWWriteByte
    ds18b20.o(i.DS18B20_read) refers to 1wire.o(i.OWReadByte) for OWReadByte
    ds18b20.o(i.DS18B20_read) refers to ds18b20.o(i.DS18B20_convert) for DS18B20_convert
    nrf24l01.o(i.SPI_RW) refers to stm32f10x_spi.o(i.SPI_I2S_GetFlagStatus) for SPI_I2S_GetFlagStatus
    nrf24l01.o(i.SPI_RW) refers to stm32f10x_spi.o(i.SPI_I2S_SendData) for SPI_I2S_SendData
    nrf24l01.o(i.SPI_RW) refers to stm32f10x_spi.o(i.SPI_I2S_ReceiveData) for SPI_I2S_ReceiveData
    nrf24l01.o(i.nRF24L01_RW_Reg) refers to nrf24l01.o(i.SPI_RW) for SPI_RW
    nrf24l01.o(i.nRF24L01_RxPacket) refers to nrf24l01.o(i.nRF24L01_readReg) for nRF24L01_readReg
    nrf24l01.o(i.nRF24L01_RxPacket) refers to nrf24l01.o(i.nRF24L01_readBuff) for nRF24L01_readBuff
    nrf24l01.o(i.nRF24L01_RxPacket) refers to nrf24l01.o(i.nRF24L01_writeReg) for nRF24L01_writeReg
    nrf24l01.o(i.nRF24L01_RxPacket) refers to stm32f10x_gpio.o(i.GPIO_SetBits) for GPIO_SetBits
    nrf24l01.o(i.nRF24L01_TxPacket) refers to common.o(i.delayXusec) for delayXusec
    nrf24l01.o(i.nRF24L01_TxPacket) refers to nrf24l01.o(i.nRF24L01_readReg) for nRF24L01_readReg
    nrf24l01.o(i.nRF24L01_TxPacket) refers to stm32f10x_gpio.o(i.GPIO_ResetBits) for GPIO_ResetBits
    nrf24l01.o(i.nRF24L01_TxPacket) refers to nrf24l01.o(i.nRF24L01_writeBuff) for nRF24L01_writeBuff
    nrf24l01.o(i.nRF24L01_TxPacket) refers to nrf24l01.o(i.nRF24L01_writeReg) for nRF24L01_writeReg
    nrf24l01.o(i.nRF24L01_TxPacket) refers to stm32f10x_gpio.o(i.GPIO_SetBits) for GPIO_SetBits
    nrf24l01.o(i.nRF24L01_TxPacket) refers to nrf24l01.o(.data) for bTxBusy
    nrf24l01.o(i.nRF24L01_config) refers to nrf24l01.o(i.nRF24L01_writeReg) for nRF24L01_writeReg
    nrf24l01.o(i.nRF24L01_config) refers to common.o(i.delayXusec) for delayXusec
    nrf24l01.o(i.nRF24L01_config) refers to stm32f10x_gpio.o(i.GPIO_SetBits) for GPIO_SetBits
    nrf24l01.o(i.nRF24L01_init) refers to stm32f10x_gpio.o(i.GPIO_SetBits) for GPIO_SetBits
    nrf24l01.o(i.nRF24L01_init) refers to common.o(i.delayXusec) for delayXusec
    nrf24l01.o(i.nRF24L01_init) refers to stm32f10x_gpio.o(i.GPIO_ResetBits) for GPIO_ResetBits
    nrf24l01.o(i.nRF24L01_init) refers to nrf24l01.o(i.nRF24L01_readBuff) for nRF24L01_readBuff
    nrf24l01.o(i.nRF24L01_init) refers to nrf24l01.o(i.nRF24L01_writeReg) for nRF24L01_writeReg
    nrf24l01.o(i.nRF24L01_init) refers to nrf24l01.o(i.nRF24L01_writeBuff) for nRF24L01_writeBuff
    nrf24l01.o(i.nRF24L01_init) refers to nrf24l01.o(i.nRF24L01_config) for nRF24L01_config
    nrf24l01.o(i.nRF24L01_readBuff) refers to stm32f10x_gpio.o(i.GPIO_ResetBits) for GPIO_ResetBits
    nrf24l01.o(i.nRF24L01_readBuff) refers to nrf24l01.o(i.nRF24L01_RW_Reg) for nRF24L01_RW_Reg
    nrf24l01.o(i.nRF24L01_readBuff) refers to nrf24l01.o(i.SPI_RW) for SPI_RW
    nrf24l01.o(i.nRF24L01_readBuff) refers to stm32f10x_gpio.o(i.GPIO_SetBits) for GPIO_SetBits
    nrf24l01.o(i.nRF24L01_readReg) refers to nrf24l01.o(i.nRF24L01_readBuff) for nRF24L01_readBuff
    nrf24l01.o(i.nRF24L01_setModeRX) refers to nrf24l01.o(i.nRF24L01_readReg) for nRF24L01_readReg
    nrf24l01.o(i.nRF24L01_setModeRX) refers to stm32f10x_gpio.o(i.GPIO_ResetBits) for GPIO_ResetBits
    nrf24l01.o(i.nRF24L01_setModeRX) refers to nrf24l01.o(i.nRF24L01_writeReg) for nRF24L01_writeReg
    nrf24l01.o(i.nRF24L01_setModeRX) refers to nrf24l01.o(i.nRF24L01_config) for nRF24L01_config
    nrf24l01.o(i.nRF24L01_setModeTX) refers to nrf24l01.o(i.nRF24L01_readReg) for nRF24L01_readReg
    nrf24l01.o(i.nRF24L01_setModeTX) refers to stm32f10x_gpio.o(i.GPIO_ResetBits) for GPIO_ResetBits
    nrf24l01.o(i.nRF24L01_setModeTX) refers to nrf24l01.o(i.nRF24L01_writeBuff) for nRF24L01_writeBuff
    nrf24l01.o(i.nRF24L01_setModeTX) refers to nrf24l01.o(i.nRF24L01_writeReg) for nRF24L01_writeReg
    nrf24l01.o(i.nRF24L01_setModeTX) refers to nrf24l01.o(i.nRF24L01_config) for nRF24L01_config
    nrf24l01.o(i.nRF24L01_setModeTX) refers to stm32f10x_exti.o(i.EXTI_ClearITPendingBit) for EXTI_ClearITPendingBit
    nrf24l01.o(i.nRF24L01_writeBuff) refers to stm32f10x_gpio.o(i.GPIO_ResetBits) for GPIO_ResetBits
    nrf24l01.o(i.nRF24L01_writeBuff) refers to nrf24l01.o(i.nRF24L01_RW_Reg) for nRF24L01_RW_Reg
    nrf24l01.o(i.nRF24L01_writeBuff) refers to nrf24l01.o(i.SPI_RW) for SPI_RW
    nrf24l01.o(i.nRF24L01_writeBuff) refers to stm32f10x_gpio.o(i.GPIO_SetBits) for GPIO_SetBits
    nrf24l01.o(i.nRF24L01_writeReg) refers to nrf24l01.o(i.nRF24L01_writeBuff) for nRF24L01_writeBuff
    nrf24l01.o(i.processIRQ_nRF24L01) refers to stm32f10x_gpio.o(i.GPIO_ResetBits) for GPIO_ResetBits
    nrf24l01.o(i.processIRQ_nRF24L01) refers to nrf24l01.o(i.nRF24L01_readReg) for nRF24L01_readReg
    nrf24l01.o(i.processIRQ_nRF24L01) refers to nrf24l01.o(i.nRF24L01_readBuff) for nRF24L01_readBuff
    nrf24l01.o(i.processIRQ_nRF24L01) refers to tasks_usbcli.o(i.OnWirelessMsg) for OnWirelessMsg
    nrf24l01.o(i.processIRQ_nRF24L01) refers to stm32f10x_gpio.o(i.GPIO_SetBits) for GPIO_SetBits
    nrf24l01.o(i.processIRQ_nRF24L01) refers to common.o(i.delayXusec) for delayXusec
    nrf24l01.o(i.processIRQ_nRF24L01) refers to nrf24l01.o(i.nRF24L01_writeReg) for nRF24L01_writeReg
    nrf24l01.o(i.processIRQ_nRF24L01) refers to stm32f10x_exti.o(i.EXTI_ClearITPendingBit) for EXTI_ClearITPendingBit
    nrf24l01.o(i.processIRQ_nRF24L01) refers to nrf24l01.o(.data) for bTxBusy
    tasks_usbcli.o(i.InitProcedure) refers to bsp_isv2.o(i.ISBoard_setLed) for ISBoard_setLed
    tasks_usbcli.o(i.InitProcedure) refers to common.o(i.delayXusec) for delayXusec
    tasks_usbcli.o(i.OnMessageReceived) refers to tasks_usbcli.o(.bss) for _pendTxtMsgs
    tasks_usbcli.o(i.OnWirelessMsg) refers to tasks_usbcli.o(i.OnMessageReceived) for OnMessageReceived
    tasks_usbcli.o(i.Task_LocalStatus) refers to memseta.o(.text) for __aeabi_memclr4
    tasks_usbcli.o(i.Task_LocalStatus) refers to nrf24l01.o(i.nRF24L01_init) for nRF24L01_init
    tasks_usbcli.o(i.Task_LocalStatus) refers to os_time.o(i.OSTimeDlyHMSM) for OSTimeDlyHMSM
    tasks_usbcli.o(i.Task_LocalStatus) refers to os_time.o(i.OSTimeGet) for OSTimeGet
    tasks_usbcli.o(i.Task_LocalStatus) refers to pulses.o(i.Pulse_parseSignals) for Pulse_parseSignals
    tasks_usbcli.o(i.Task_LocalStatus) refers to printf8.o(i.__0sprintf$8) for __2sprintf
    tasks_usbcli.o(i.Task_LocalStatus) refers to strlen.o(.text) for strlen
    tasks_usbcli.o(i.Task_LocalStatus) refers to tasks_usbcli.o(i.sendMsgToUsb) for sendMsgToUsb
    tasks_usbcli.o(i.Task_LocalStatus) refers to bsp_isv2.o(i.motionState) for motionState
    tasks_usbcli.o(i.Task_LocalStatus) refers to bsp_isv2.o(i.ISBoard_setLed) for ISBoard_setLed
    tasks_usbcli.o(i.Task_LocalStatus) refers to ds18b20.o(i.DS18B20_read) for DS18B20_read
    tasks_usbcli.o(i.Task_LocalStatus) refers to tasks_usbcli.o(i.sendTxtMsgToNRF) for sendTxtMsgToNRF
    tasks_usbcli.o(i.Task_LocalStatus) refers to tasks_usbcli.o(.bss) for _pendTxtMsgs
    tasks_usbcli.o(i.Task_LocalStatus) refers to tasks_usbcli.o(.data) for nrf24l01
    tasks_usbcli.o(i.Task_LocalStatus) refers to int_is.o(.data) for pulseCapBuf
    tasks_usbcli.o(i.Task_LocalStatus) refers to bsp_isv2.o(.bss) for ds18b20
    tasks_usbcli.o(i.Task_MsgProc) refers to strlen.o(.text) for strlen
    tasks_usbcli.o(i.Task_MsgProc) refers to tasks_usbcli.o(i.sendMsgToUsb) for sendMsgToUsb
    tasks_usbcli.o(i.Task_MsgProc) refers to strstr.o(.text) for strstr
    tasks_usbcli.o(i.Task_MsgProc) refers to common.o(i.hex2int) for hex2int
    tasks_usbcli.o(i.Task_MsgProc) refers to bsp_isv2.o(i.ISBoard_setLed) for ISBoard_setLed
    tasks_usbcli.o(i.Task_MsgProc) refers to os_time.o(i.OSTimeDlyHMSM) for OSTimeDlyHMSM
    tasks_usbcli.o(i.Task_MsgProc) refers to tasks_usbcli.o(.bss) for _pendTxtMsgs
    tasks_usbcli.o(i.Task_MsgProc) refers to tasks_usbcli.o(.data) for RF_masterId
    tasks_usbcli.o(i.Task_UsbRecv) refers to os_cpu_c.o(i.OS_CPU_SysTickInit) for OS_CPU_SysTickInit
    tasks_usbcli.o(i.Task_UsbRecv) refers to os_core.o(i.OSStatInit) for OSStatInit
    tasks_usbcli.o(i.Task_UsbRecv) refers to os_task.o(i.OSTaskCreate) for OSTaskCreate
    tasks_usbcli.o(i.Task_UsbRecv) refers to bsp_isv2.o(i.Set_USBClock) for Set_USBClock
    tasks_usbcli.o(i.Task_UsbRecv) refers to usb_init.o(i.USB_Init) for USB_Init
    tasks_usbcli.o(i.Task_UsbRecv) refers to os_time.o(i.OSTimeDlyHMSM) for OSTimeDlyHMSM
    tasks_usbcli.o(i.Task_UsbRecv) refers to tasks_usbcli.o(i.OnMessageReceived) for OnMessageReceived
    tasks_usbcli.o(i.Task_UsbRecv) refers to tasks_usbcli.o(.bss) for TaskStack_LocalStatus
    tasks_usbcli.o(i.Task_UsbRecv) refers to tasks_usbcli.o(i.Task_LocalStatus) for Task_LocalStatus
    tasks_usbcli.o(i.Task_UsbRecv) refers to tasks_usbcli.o(i.Task_MsgProc) for Task_MsgProc
    tasks_usbcli.o(i.Task_UsbRecv) refers to usb_endp.o(.data) for count_out
    tasks_usbcli.o(i.Task_UsbRecv) refers to usb_endp.o(.bss) for buffer_out
    tasks_usbcli.o(i.main) refers to int_is.o(i.BSP_IntDisAll) for BSP_IntDisAll
    tasks_usbcli.o(i.main) refers to os_core.o(i.OSInit) for OSInit
    tasks_usbcli.o(i.main) refers to bsp_isv2.o(i.BSP_Init) for BSP_Init
    tasks_usbcli.o(i.main) refers to int_is.o(i.BSP_IntInit) for BSP_IntInit
    tasks_usbcli.o(i.main) refers to tasks_usbcli.o(i.InitProcedure) for InitProcedure
    tasks_usbcli.o(i.main) refers to os_task.o(i.OSTaskCreate) for OSTaskCreate
    tasks_usbcli.o(i.main) refers to os_task.o(i.OSTaskNameSet) for OSTaskNameSet
    tasks_usbcli.o(i.main) refers to os_time.o(i.OSTimeSet) for OSTimeSet
    tasks_usbcli.o(i.main) refers to os_core.o(i.OSStart) for OSStart
    tasks_usbcli.o(i.main) refers to tasks_usbcli.o(.bss) for TaskStack_UsbRecv
    tasks_usbcli.o(i.main) refers to tasks_usbcli.o(i.Task_UsbRecv) for Task_UsbRecv
    tasks_usbcli.o(i.sendMsgToUsb) refers to usb_mem.o(i.UserToPMABufferCopy) for UserToPMABufferCopy
    tasks_usbcli.o(i.sendMsgToUsb) refers to usb_regs.o(i.SetEPTxCount) for SetEPTxCount
    tasks_usbcli.o(i.sendMsgToUsb) refers to usb_regs.o(i.SetEPTxValid) for SetEPTxValid
    tasks_usbcli.o(i.sendTxtMsgToNRF) refers to nrf24l01.o(i.nRF24L01_setModeTX) for nRF24L01_setModeTX
    tasks_usbcli.o(i.sendTxtMsgToNRF) refers to nrf24l01.o(i.nRF24L01_TxPacket) for nRF24L01_TxPacket
    tasks_usbcli.o(i.sendTxtMsgToNRF) refers to nrf24l01.o(i.nRF24L01_setModeRX) for nRF24L01_setModeRX
    tasks_usbcli.o(i.sendTxtMsgToNRF) refers to tasks_usbcli.o(.data) for buf_i
    tasks_usbcli.o(i.sendTxtMsgToNRF) refers to tasks_usbcli.o(.bss) for buf
    tasks_usbcli.o(.data) refers to tasks_usbcli.o(.bss) for irseq
    pulses.o(i.IOSend_M7461M) refers to stm32f10x_gpio.o(i.GPIO_SetBits) for GPIO_SetBits
    pulses.o(i.IOSend_M7461M) refers to stm32f10x_gpio.o(i.GPIO_ResetBits) for GPIO_ResetBits
    pulses.o(i.IOSend_M7461M) refers to common.o(i.delayXusec) for delayXusec
    pulses.o(i.IOSend_M7461M) refers to pulses.o(.data) for pulsej
    pulses.o(i.IOSend_TC9012F) refers to stm32f10x_gpio.o(i.GPIO_SetBits) for GPIO_SetBits
    pulses.o(i.IOSend_TC9012F) refers to stm32f10x_gpio.o(i.GPIO_ResetBits) for GPIO_ResetBits
    pulses.o(i.IOSend_TC9012F) refers to common.o(i.delayXusec) for delayXusec
    pulses.o(i.IOSend_TC9012F) refers to pulses.o(.data) for pulsej
    pulses.o(i.IOSend_uPD6121) refers to stm32f10x_gpio.o(i.GPIO_SetBits) for GPIO_SetBits
    pulses.o(i.IOSend_uPD6121) refers to stm32f10x_gpio.o(i.GPIO_ResetBits) for GPIO_ResetBits
    pulses.o(i.IOSend_uPD6121) refers to common.o(i.delayXusec) for delayXusec
    pulses.o(i.IOSend_uPD6121) refers to pulses.o(.data) for pulsej
    pulses.o(i.IRRecv) refers to common.o(i.delayXusec) for delayXusec
    pulses.o(i.IRRecv) refers to stm32f10x_gpio.o(i.GPIO_ReadInputDataBit) for GPIO_ReadInputDataBit
    pulses.o(i.PulseEncode_EV1527) refers to pulses.o(.data) for pulsei
    pulses.o(i.PulseEncode_PT2262) refers to pulses.o(.data) for pulsei
    pulses.o(i.PulseSend_byProfile) refers to strcmp.o(.text) for strcmp
    pulses.o(i.PulseSend_byProfile) refers to pulses.o(i.PulseSend_byProfileId) for PulseSend_byProfileId
    pulses.o(i.PulseSend_byProfile) refers to pulses.o(.constdata) for _PulseSend_Profiles
    pulses.o(i.PulseSend_byProfileId) refers to stm32f10x_gpio.o(i.GPIO_SetBits) for GPIO_SetBits
    pulses.o(i.PulseSend_byProfileId) refers to stm32f10x_gpio.o(i.GPIO_ResetBits) for GPIO_ResetBits
    pulses.o(i.PulseSend_byProfileId) refers to common.o(i.delayXusec) for delayXusec
    pulses.o(i.PulseSend_byProfileId) refers to pulses.o(.constdata) for _PulseSend_Profiles
    pulses.o(i.PulseSend_byProfileId) refers to pulses.o(.data) for _pulseusec
    pulses.o(i.PulseSend_bySeq) refers to stm32f10x_gpio.o(i.GPIO_SetBits) for GPIO_SetBits
    pulses.o(i.PulseSend_bySeq) refers to stm32f10x_gpio.o(i.GPIO_ResetBits) for GPIO_ResetBits
    pulses.o(i.PulseSend_bySeq) refers to common.o(i.delayXusec) for delayXusec
    pulses.o(i.PulseSend_bySeq) refers to pulses.o(.data) for _pulseusec
    pulses.o(i.Pulse_capture) refers to common.o(i.delayXusec) for delayXusec
    pulses.o(.constdata) refers to pulses.o(.conststring) for .conststring
    usb_core.o(i.DataStageIn) refers to usb_regs.o(i.GetEPTxAddr) for GetEPTxAddr
    usb_core.o(i.DataStageIn) refers to usb_mem.o(i.UserToPMABufferCopy) for UserToPMABufferCopy
    usb_core.o(i.DataStageIn) refers to usb_regs.o(i.SetEPTxCount) for SetEPTxCount
    usb_core.o(i.DataStageIn) refers to usb_init.o(.data) for pInformation
    usb_core.o(i.DataStageIn) refers to usb_int.o(.data) for SaveTState
    usb_core.o(i.DataStageOut) refers to usb_regs.o(i.GetEPRxAddr) for GetEPRxAddr
    usb_core.o(i.DataStageOut) refers to usb_mem.o(i.PMAToUserBufferCopy) for PMAToUserBufferCopy
    usb_core.o(i.DataStageOut) refers to usb_regs.o(i.SetEPTxCount) for SetEPTxCount
    usb_core.o(i.DataStageOut) refers to usb_init.o(.data) for pInformation
    usb_core.o(i.DataStageOut) refers to usb_int.o(.data) for SaveRState
    usb_core.o(i.Data_Setup0) refers to usb_core.o(i.DataStageIn) for DataStageIn
    usb_core.o(i.Data_Setup0) refers to usb_init.o(.data) for pInformation
    usb_core.o(i.Data_Setup0) refers to usb_core.o(i.Standard_GetStatus) for Standard_GetStatus
    usb_core.o(i.Data_Setup0) refers to usb_prop.o(.data) for Device_Table
    usb_core.o(i.Data_Setup0) refers to usb_core.o(i.Standard_GetConfiguration) for Standard_GetConfiguration
    usb_core.o(i.Data_Setup0) refers to usb_core.o(i.Standard_GetInterface) for Standard_GetInterface
    usb_core.o(i.Data_Setup0) refers to usb_int.o(.data) for SaveRState
    usb_core.o(i.In0_Process) refers to usb_core.o(i.DataStageIn) for DataStageIn
    usb_core.o(i.In0_Process) refers to usb_core.o(i.SetDeviceAddress) for SetDeviceAddress
    usb_core.o(i.In0_Process) refers to usb_core.o(i.Post0_Process) for Post0_Process
    usb_core.o(i.In0_Process) refers to usb_init.o(.data) for pInformation
    usb_core.o(i.NoData_Setup0) refers to usb_core.o(i.Standard_SetConfiguration) for Standard_SetConfiguration
    usb_core.o(i.NoData_Setup0) refers to usb_core.o(i.Standard_SetDeviceFeature) for Standard_SetDeviceFeature
    usb_core.o(i.NoData_Setup0) refers to usb_core.o(i.Standard_ClearFeature) for Standard_ClearFeature
    usb_core.o(i.NoData_Setup0) refers to usb_core.o(i.Standard_SetInterface) for Standard_SetInterface
    usb_core.o(i.NoData_Setup0) refers to usb_core.o(i.Standard_SetEndPointFeature) for Standard_SetEndPointFeature
    usb_core.o(i.NoData_Setup0) refers to usb_init.o(.data) for pInformation
    usb_core.o(i.NoData_Setup0) refers to usb_int.o(.data) for SaveTState
    usb_core.o(i.Out0_Process) refers to usb_core.o(i.DataStageOut) for DataStageOut
    usb_core.o(i.Out0_Process) refers to usb_core.o(i.Post0_Process) for Post0_Process
    usb_core.o(i.Out0_Process) refers to usb_init.o(.data) for pInformation
    usb_core.o(i.Post0_Process) refers to usb_regs.o(i.SetEPRxCount) for SetEPRxCount
    usb_core.o(i.Post0_Process) refers to usb_prop.o(.data) for Device_Property
    usb_core.o(i.Post0_Process) refers to usb_init.o(.data) for pInformation
    usb_core.o(i.Post0_Process) refers to usb_int.o(.data) for SaveRState
    usb_core.o(i.SetDeviceAddress) refers to usb_prop.o(.data) for Device_Table
    usb_core.o(i.Setup0_Process) refers to usb_regs.o(i.ByteSwap) for ByteSwap
    usb_core.o(i.Setup0_Process) refers to usb_core.o(i.NoData_Setup0) for NoData_Setup0
    usb_core.o(i.Setup0_Process) refers to usb_core.o(i.Data_Setup0) for Data_Setup0
    usb_core.o(i.Setup0_Process) refers to usb_core.o(i.Post0_Process) for Post0_Process
    usb_core.o(i.Setup0_Process) refers to usb_init.o(.data) for pInformation
    usb_core.o(i.Standard_ClearFeature) refers to usb_regs.o(i.ClearDTOG_TX) for ClearDTOG_TX
    usb_core.o(i.Standard_ClearFeature) refers to usb_regs.o(i.SetEPTxStatus) for SetEPTxStatus
    usb_core.o(i.Standard_ClearFeature) refers to usb_regs.o(i.SetEPRxCount) for SetEPRxCount
    usb_core.o(i.Standard_ClearFeature) refers to usb_regs.o(i.ClearDTOG_RX) for ClearDTOG_RX
    usb_core.o(i.Standard_ClearFeature) refers to usb_init.o(.data) for pInformation
    usb_core.o(i.Standard_ClearFeature) refers to usb_prop.o(.data) for Device_Table
    usb_core.o(i.Standard_GetConfiguration) refers to usb_init.o(.data) for pInformation
    usb_core.o(i.Standard_GetDescriptorData) refers to usb_init.o(.data) for pInformation
    usb_core.o(i.Standard_GetInterface) refers to usb_init.o(.data) for pInformation
    usb_core.o(i.Standard_GetStatus) refers to usb_init.o(.data) for pInformation
    usb_core.o(i.Standard_GetStatus) refers to usb_core.o(.data) for StatusInfo
    usb_core.o(i.Standard_SetConfiguration) refers to usb_init.o(.data) for pInformation
    usb_core.o(i.Standard_SetConfiguration) refers to usb_prop.o(.data) for Device_Table
    usb_core.o(i.Standard_SetDeviceFeature) refers to usb_init.o(.data) for pInformation
    usb_core.o(i.Standard_SetEndPointFeature) refers to usb_init.o(.data) for pInformation
    usb_core.o(i.Standard_SetEndPointFeature) refers to usb_prop.o(.data) for Device_Table
    usb_core.o(i.Standard_SetInterface) refers to usb_init.o(.data) for pInformation
    usb_init.o(i.USB_Init) refers to usb_init.o(.bss) for Device_Info
    usb_init.o(i.USB_Init) refers to usb_init.o(.data) for pInformation
    usb_init.o(i.USB_Init) refers to usb_prop.o(.data) for Device_Property
    usb_int.o(i.CTR_HP) refers to usb_istr.o(.data) for wIstr
    usb_int.o(i.CTR_HP) refers to usb_init.o(.data) for EPindex
    usb_int.o(i.CTR_LP) refers to usb_core.o(i.In0_Process) for In0_Process
    usb_int.o(i.CTR_LP) refers to usb_core.o(i.Setup0_Process) for Setup0_Process
    usb_int.o(i.CTR_LP) refers to usb_core.o(i.Out0_Process) for Out0_Process
    usb_int.o(i.CTR_LP) refers to usb_istr.o(.data) for wIstr
    usb_int.o(i.CTR_LP) refers to usb_init.o(.data) for EPindex
    usb_int.o(i.CTR_LP) refers to usb_int.o(.data) for SaveRState
    usb_regs.o(i.SetDouBleBuffEPStall) refers to usb_regs.o(i.GetENDPOINT) for GetENDPOINT
    stm32f10x_adc.o(i.ADC_DeInit) refers to stm32f10x_rcc.o(i.RCC_APB2PeriphResetCmd) for RCC_APB2PeriphResetCmd
    stm32f10x_bkp.o(i.BKP_DeInit) refers to stm32f10x_rcc.o(i.RCC_BackupResetCmd) for RCC_BackupResetCmd
    stm32f10x_can.o(i.CAN_DeInit) refers to stm32f10x_rcc.o(i.RCC_APB1PeriphResetCmd) for RCC_APB1PeriphResetCmd
    stm32f10x_can.o(i.CAN_GetITStatus) refers to stm32f10x_can.o(i.CheckITStatus) for CheckITStatus
    stm32f10x_can.o(i.CAN_Receive) refers to stm32f10x_can.o(i.CAN_FIFORelease) for CAN_FIFORelease
    stm32f10x_dac.o(i.DAC_DeInit) refers to stm32f10x_rcc.o(i.RCC_APB1PeriphResetCmd) for RCC_APB1PeriphResetCmd
    stm32f10x_flash.o(i.FLASH_EnableWriteProtection) refers to stm32f10x_flash.o(i.FLASH_WaitForLastOperation) for FLASH_WaitForLastOperation
    stm32f10x_flash.o(i.FLASH_EraseAllPages) refers to stm32f10x_flash.o(i.FLASH_WaitForLastOperation) for FLASH_WaitForLastOperation
    stm32f10x_flash.o(i.FLASH_EraseOptionBytes) refers to stm32f10x_flash.o(i.FLASH_WaitForLastOperation) for FLASH_WaitForLastOperation
    stm32f10x_flash.o(i.FLASH_ErasePage) refers to stm32f10x_flash.o(i.FLASH_WaitForLastOperation) for FLASH_WaitForLastOperation
    stm32f10x_flash.o(i.FLASH_ProgramHalfWord) refers to stm32f10x_flash.o(i.FLASH_WaitForLastOperation) for FLASH_WaitForLastOperation
    stm32f10x_flash.o(i.FLASH_ProgramOptionByteData) refers to stm32f10x_flash.o(i.FLASH_WaitForLastOperation) for FLASH_WaitForLastOperation
    stm32f10x_flash.o(i.FLASH_ProgramWord) refers to stm32f10x_flash.o(i.FLASH_WaitForLastOperation) for FLASH_WaitForLastOperation
    stm32f10x_flash.o(i.FLASH_ReadOutProtection) refers to stm32f10x_flash.o(i.FLASH_WaitForLastOperation) for FLASH_WaitForLastOperation
    stm32f10x_flash.o(i.FLASH_UserOptionByteConfig) refers to stm32f10x_flash.o(i.FLASH_WaitForLastOperation) for FLASH_WaitForLastOperation
    stm32f10x_flash.o(i.FLASH_WaitForLastOperation) refers to stm32f10x_flash.o(i.FLASH_GetStatus) for FLASH_GetStatus
    stm32f10x_flash.o(i.FLASH_WaitForLastOperation) refers to stm32f10x_flash.o(i.delay) for delay
    stm32f10x_gpio.o(i.GPIO_AFIODeInit) refers to stm32f10x_rcc.o(i.RCC_APB2PeriphResetCmd) for RCC_APB2PeriphResetCmd
    stm32f10x_gpio.o(i.GPIO_DeInit) refers to stm32f10x_rcc.o(i.RCC_APB2PeriphResetCmd) for RCC_APB2PeriphResetCmd
    stm32f10x_i2c.o(i.I2C_DeInit) refers to stm32f10x_rcc.o(i.RCC_APB1PeriphResetCmd) for RCC_APB1PeriphResetCmd
    stm32f10x_i2c.o(i.I2C_Init) refers to stm32f10x_rcc.o(i.RCC_GetClocksFreq) for RCC_GetClocksFreq
    stm32f10x_pwr.o(i.PWR_DeInit) refers to stm32f10x_rcc.o(i.RCC_APB1PeriphResetCmd) for RCC_APB1PeriphResetCmd
    stm32f10x_rcc.o(i.RCC_GetClocksFreq) refers to stm32f10x_rcc.o(.data) for APBAHBPrescTable
    stm32f10x_rcc.o(i.RCC_WaitForHSEStartUp) refers to stm32f10x_rcc.o(i.RCC_GetFlagStatus) for RCC_GetFlagStatus
    stm32f10x_rtc.o(i.RTC_SetAlarm) refers to stm32f10x_rtc.o(i.RTC_EnterConfigMode) for RTC_EnterConfigMode
    stm32f10x_rtc.o(i.RTC_SetAlarm) refers to stm32f10x_rtc.o(i.RTC_ExitConfigMode) for RTC_ExitConfigMode
    stm32f10x_rtc.o(i.RTC_SetCounter) refers to stm32f10x_rtc.o(i.RTC_EnterConfigMode) for RTC_EnterConfigMode
    stm32f10x_rtc.o(i.RTC_SetCounter) refers to stm32f10x_rtc.o(i.RTC_ExitConfigMode) for RTC_ExitConfigMode
    stm32f10x_rtc.o(i.RTC_SetPrescaler) refers to stm32f10x_rtc.o(i.RTC_EnterConfigMode) for RTC_EnterConfigMode
    stm32f10x_rtc.o(i.RTC_SetPrescaler) refers to stm32f10x_rtc.o(i.RTC_ExitConfigMode) for RTC_ExitConfigMode
    stm32f10x_spi.o(i.I2S_Init) refers to stm32f10x_rcc.o(i.RCC_GetClocksFreq) for RCC_GetClocksFreq
    stm32f10x_spi.o(i.SPI_I2S_DeInit) refers to stm32f10x_rcc.o(i.RCC_APB2PeriphResetCmd) for RCC_APB2PeriphResetCmd
    stm32f10x_spi.o(i.SPI_I2S_DeInit) refers to stm32f10x_rcc.o(i.RCC_APB1PeriphResetCmd) for RCC_APB1PeriphResetCmd
    stm32f10x_tim.o(i.TIM_DeInit) refers to stm32f10x_rcc.o(i.RCC_APB2PeriphResetCmd) for RCC_APB2PeriphResetCmd
    stm32f10x_tim.o(i.TIM_DeInit) refers to stm32f10x_rcc.o(i.RCC_APB1PeriphResetCmd) for RCC_APB1PeriphResetCmd
    stm32f10x_tim.o(i.TIM_ETRClockMode1Config) refers to stm32f10x_tim.o(i.TIM_ETRConfig) for TIM_ETRConfig
    stm32f10x_tim.o(i.TIM_ETRClockMode2Config) refers to stm32f10x_tim.o(i.TIM_ETRConfig) for TIM_ETRConfig
    stm32f10x_tim.o(i.TIM_ICInit) refers to stm32f10x_tim.o(i.TI1_Config) for TI1_Config
    stm32f10x_tim.o(i.TIM_ICInit) refers to stm32f10x_tim.o(i.TIM_SetIC1Prescaler) for TIM_SetIC1Prescaler
    stm32f10x_tim.o(i.TIM_ICInit) refers to stm32f10x_tim.o(i.TI2_Config) for TI2_Config
    stm32f10x_tim.o(i.TIM_ICInit) refers to stm32f10x_tim.o(i.TIM_SetIC2Prescaler) for TIM_SetIC2Prescaler
    stm32f10x_tim.o(i.TIM_ICInit) refers to stm32f10x_tim.o(i.TI3_Config) for TI3_Config
    stm32f10x_tim.o(i.TIM_ICInit) refers to stm32f10x_tim.o(i.TIM_SetIC3Prescaler) for TIM_SetIC3Prescaler
    stm32f10x_tim.o(i.TIM_ICInit) refers to stm32f10x_tim.o(i.TI4_Config) for TI4_Config
    stm32f10x_tim.o(i.TIM_ICInit) refers to stm32f10x_tim.o(i.TIM_SetIC4Prescaler) for TIM_SetIC4Prescaler
    stm32f10x_tim.o(i.TIM_ITRxExternalClockConfig) refers to stm32f10x_tim.o(i.TIM_SelectInputTrigger) for TIM_SelectInputTrigger
    stm32f10x_tim.o(i.TIM_PWMIConfig) refers to stm32f10x_tim.o(i.TI1_Config) for TI1_Config
    stm32f10x_tim.o(i.TIM_PWMIConfig) refers to stm32f10x_tim.o(i.TIM_SetIC1Prescaler) for TIM_SetIC1Prescaler
    stm32f10x_tim.o(i.TIM_PWMIConfig) refers to stm32f10x_tim.o(i.TI2_Config) for TI2_Config
    stm32f10x_tim.o(i.TIM_PWMIConfig) refers to stm32f10x_tim.o(i.TIM_SetIC2Prescaler) for TIM_SetIC2Prescaler
    stm32f10x_tim.o(i.TIM_TIxExternalClockConfig) refers to stm32f10x_tim.o(i.TI2_Config) for TI2_Config
    stm32f10x_tim.o(i.TIM_TIxExternalClockConfig) refers to stm32f10x_tim.o(i.TI1_Config) for TI1_Config
    stm32f10x_tim.o(i.TIM_TIxExternalClockConfig) refers to stm32f10x_tim.o(i.TIM_SelectInputTrigger) for TIM_SelectInputTrigger
    stm32f10x_usart.o(i.USART_DeInit) refers to stm32f10x_rcc.o(i.RCC_APB2PeriphResetCmd) for RCC_APB2PeriphResetCmd
    stm32f10x_usart.o(i.USART_DeInit) refers to stm32f10x_rcc.o(i.RCC_APB1PeriphResetCmd) for RCC_APB1PeriphResetCmd
    stm32f10x_usart.o(i.USART_Init) refers to stm32f10x_rcc.o(i.RCC_GetClocksFreq) for RCC_GetClocksFreq
    stm32f10x_wwdg.o(i.WWDG_DeInit) refers to stm32f10x_rcc.o(i.RCC_APB1PeriphResetCmd) for RCC_APB1PeriphResetCmd
    vectors.o(VECT) refers to init.o(INIT) for ResetHndlr
    vectors.o(VECT) refers to os_cpu_a.o(.text) for OS_CPU_PendSVHandler
    vectors.o(VECT) refers to os_cpu_c.o(i.OS_CPU_SysTickHandler) for OS_CPU_SysTickHandler
    vectors.o(VECT) refers to int_is.o(i.BSP_IntHandlerWWDG) for BSP_IntHandlerWWDG
    vectors.o(VECT) refers to int_is.o(i.BSP_IntHandlerPVD) for BSP_IntHandlerPVD
    vectors.o(VECT) refers to int_is.o(i.BSP_IntHandlerTAMPER) for BSP_IntHandlerTAMPER
    vectors.o(VECT) refers to int_is.o(i.BSP_IntHandlerRTC) for BSP_IntHandlerRTC
    vectors.o(VECT) refers to int_is.o(i.BSP_IntHandlerFLASH) for BSP_IntHandlerFLASH
    vectors.o(VECT) refers to int_is.o(i.BSP_IntHandlerRCC) for BSP_IntHandlerRCC
    vectors.o(VECT) refers to int_is.o(i.BSP_IntHandlerEXTI0) for BSP_IntHandlerEXTI0
    vectors.o(VECT) refers to int_is.o(i.BSP_IntHandlerEXTI1) for BSP_IntHandlerEXTI1
    vectors.o(VECT) refers to int_is.o(i.BSP_IntHandlerEXTI2) for BSP_IntHandlerEXTI2
    vectors.o(VECT) refers to int_is.o(i.BSP_IntHandlerEXTI3) for BSP_IntHandlerEXTI3
    vectors.o(VECT) refers to int_is.o(i.BSP_IntHandlerEXTI4) for BSP_IntHandlerEXTI4
    vectors.o(VECT) refers to int_is.o(i.BSP_IntHandlerDMA1_CH1) for BSP_IntHandlerDMA1_CH1
    vectors.o(VECT) refers to int_is.o(i.BSP_IntHandlerDMA1_CH2) for BSP_IntHandlerDMA1_CH2
    vectors.o(VECT) refers to int_is.o(i.BSP_IntHandlerDMA1_CH3) for BSP_IntHandlerDMA1_CH3
    vectors.o(VECT) refers to int_is.o(i.BSP_IntHandlerDMA1_CH4) for BSP_IntHandlerDMA1_CH4
    vectors.o(VECT) refers to int_is.o(i.BSP_IntHandlerDMA1_CH5) for BSP_IntHandlerDMA1_CH5
    vectors.o(VECT) refers to int_is.o(i.BSP_IntHandlerDMA1_CH6) for BSP_IntHandlerDMA1_CH6
    vectors.o(VECT) refers to int_is.o(i.BSP_IntHandlerDMA1_CH7) for BSP_IntHandlerDMA1_CH7
    vectors.o(VECT) refers to int_is.o(i.BSP_IntHandlerADC1_2) for BSP_IntHandlerADC1_2
    vectors.o(VECT) refers to int_is.o(i.BSP_IntHandlerUSB_HP_CAN_TX) for BSP_IntHandlerUSB_HP_CAN_TX
    vectors.o(VECT) refers to int_is.o(i.BSP_IntHandlerUSB_LP_CAN_RX0) for BSP_IntHandlerUSB_LP_CAN_RX0
    vectors.o(VECT) refers to int_is.o(i.BSP_IntHandlerCAN_RX1) for BSP_IntHandlerCAN_RX1
    vectors.o(VECT) refers to int_is.o(i.BSP_IntHandlerCAN_SCE) for BSP_IntHandlerCAN_SCE
    vectors.o(VECT) refers to int_is.o(i.BSP_IntHandlerEXTI9_5) for BSP_IntHandlerEXTI9_5
    vectors.o(VECT) refers to int_is.o(i.BSP_IntHandlerTIM1_BRK) for BSP_IntHandlerTIM1_BRK
    vectors.o(VECT) refers to int_is.o(i.BSP_IntHandlerTIM1_UP) for BSP_IntHandlerTIM1_UP
    vectors.o(VECT) refers to int_is.o(i.BSP_IntHandlerTIM1_TRG_COM) for BSP_IntHandlerTIM1_TRG_COM
    vectors.o(VECT) refers to int_is.o(i.BSP_IntHandlerTIM1_CC) for BSP_IntHandlerTIM1_CC
    vectors.o(VECT) refers to int_is.o(i.BSP_IntHandlerTIM2) for BSP_IntHandlerTIM2
    vectors.o(VECT) refers to int_is.o(i.BSP_IntHandlerTIM3) for BSP_IntHandlerTIM3
    vectors.o(VECT) refers to int_is.o(i.BSP_IntHandlerTIM4) for BSP_IntHandlerTIM4
    vectors.o(VECT) refers to int_is.o(i.BSP_IntHandlerI2C1_EV) for BSP_IntHandlerI2C1_EV
    vectors.o(VECT) refers to int_is.o(i.BSP_IntHandlerI2C1_ER) for BSP_IntHandlerI2C1_ER
    vectors.o(VECT) refers to int_is.o(i.BSP_IntHandlerI2C2_EV) for BSP_IntHandlerI2C2_EV
    vectors.o(VECT) refers to int_is.o(i.BSP_IntHandlerI2C2_ER) for BSP_IntHandlerI2C2_ER
    vectors.o(VECT) refers to int_is.o(i.BSP_IntHandlerSPI1) for BSP_IntHandlerSPI1
    vectors.o(VECT) refers to int_is.o(i.BSP_IntHandlerSPI2) for BSP_IntHandlerSPI2
    vectors.o(VECT) refers to int_is.o(i.BSP_IntHandlerUSART1) for BSP_IntHandlerUSART1
    vectors.o(VECT) refers to int_is.o(i.BSP_IntHandlerUSART2) for BSP_IntHandlerUSART2
    vectors.o(VECT) refers to int_is.o(i.BSP_IntHandlerUSART3) for BSP_IntHandlerUSART3
    vectors.o(VECT) refers to int_is.o(i.BSP_IntHandlerEXTI15_10) for BSP_IntHandlerEXTI15_10
    vectors.o(VECT) refers to int_is.o(i.BSP_IntHandlerRTCAlarm) for BSP_IntHandlerRTCAlarm
    vectors.o(VECT) refers to int_is.o(i.BSP_IntHandlerUSBWakeUp) for BSP_IntHandlerUSBWakeUp
    init.o(INIT) refers to entry.o(.ARM.Collect$$$$00000000) for __main
    cpu_c.o(i.CPU_IntSrcDis) refers to cpu_a.o(.text) for CPU_SR_Save
    cpu_c.o(i.CPU_IntSrcEn) refers to cpu_a.o(.text) for CPU_SR_Save
    cpu_c.o(i.CPU_IntSrcPrioGet) refers to cpu_a.o(.text) for CPU_SR_Save
    cpu_c.o(i.CPU_IntSrcPrioSet) refers to cpu_a.o(.text) for CPU_RevBits
    os_core.o(i.OSEventNameGet) refers to os_cpu_a.o(.text) for OS_CPU_SR_Save
    os_core.o(i.OSEventNameGet) refers to os_core.o(i.OS_StrCopy) for OS_StrCopy
    os_core.o(i.OSEventNameGet) refers to os_core.o(.data) for OSIntNesting
    os_core.o(i.OSEventNameSet) refers to os_cpu_a.o(.text) for OS_CPU_SR_Save
    os_core.o(i.OSEventNameSet) refers to os_core.o(i.OS_StrLen) for OS_StrLen
    os_core.o(i.OSEventNameSet) refers to os_core.o(i.OS_StrCopy) for OS_StrCopy
    os_core.o(i.OSEventNameSet) refers to os_core.o(.data) for OSIntNesting
    os_core.o(i.OSEventPendMulti) refers to os_cpu_a.o(.text) for OS_CPU_SR_Save
    os_core.o(i.OSEventPendMulti) refers to os_core.o(i.OS_EventTaskWaitMulti) for OS_EventTaskWaitMulti
    os_core.o(i.OSEventPendMulti) refers to os_core.o(i.OS_Sched) for OS_Sched
    os_core.o(i.OSEventPendMulti) refers to os_core.o(i.OS_EventTaskRemoveMulti) for OS_EventTaskRemoveMulti
    os_core.o(i.OSEventPendMulti) refers to os_core.o(.data) for OSIntNesting
    os_core.o(i.OSInit) refers to os_cpu_c.o(i.OSInitHookBegin) for OSInitHookBegin
    os_core.o(i.OSInit) refers to os_core.o(i.OS_InitMisc) for OS_InitMisc
    os_core.o(i.OSInit) refers to os_core.o(i.OS_InitRdyList) for OS_InitRdyList
    os_core.o(i.OSInit) refers to os_core.o(i.OS_InitTCBList) for OS_InitTCBList
    os_core.o(i.OSInit) refers to os_core.o(i.OS_InitEventList) for OS_InitEventList
    os_core.o(i.OSInit) refers to os_flag.o(i.OS_FlagInit) for OS_FlagInit
    os_core.o(i.OSInit) refers to os_core.o(i.OS_InitTaskIdle) for OS_InitTaskIdle
    os_core.o(i.OSInit) refers to os_core.o(i.OS_InitTaskStat) for OS_InitTaskStat
    os_core.o(i.OSInit) refers to os_cpu_c.o(i.OSInitHookEnd) for OSInitHookEnd
    os_core.o(i.OSIntEnter) refers to os_core.o(.data) for OSRunning
    os_core.o(i.OSIntExit) refers to os_cpu_a.o(.text) for OS_CPU_SR_Save
    os_core.o(i.OSIntExit) refers to os_core.o(i.OS_SchedNew) for OS_SchedNew
    os_core.o(i.OSIntExit) refers to os_core.o(.data) for OSRunning
    os_core.o(i.OSIntExit) refers to os_core.o(.bss) for OSTCBPrioTbl
    os_core.o(i.OSSchedLock) refers to os_cpu_a.o(.text) for OS_CPU_SR_Save
    os_core.o(i.OSSchedLock) refers to os_core.o(.data) for OSRunning
    os_core.o(i.OSSchedUnlock) refers to os_cpu_a.o(.text) for OS_CPU_SR_Save
    os_core.o(i.OSSchedUnlock) refers to os_core.o(i.OS_Sched) for OS_Sched
    os_core.o(i.OSSchedUnlock) refers to os_core.o(.data) for OSRunning
    os_core.o(i.OSStart) refers to os_core.o(i.OS_SchedNew) for OS_SchedNew
    os_core.o(i.OSStart) refers to os_cpu_a.o(.text) for OSStartHighRdy
    os_core.o(i.OSStart) refers to os_core.o(.data) for OSRunning
    os_core.o(i.OSStart) refers to os_core.o(.bss) for OSTCBPrioTbl
    os_core.o(i.OSStatInit) refers to os_time.o(i.OSTimeDly) for OSTimeDly
    os_core.o(i.OSStatInit) refers to os_cpu_a.o(.text) for OS_CPU_SR_Save
    os_core.o(i.OSStatInit) refers to os_core.o(.data) for OSIdleCtr
    os_core.o(i.OSTimeTick) refers to os_cpu_c.o(i.OSTimeTickHook) for OSTimeTickHook
    os_core.o(i.OSTimeTick) refers to os_cpu_a.o(.text) for OS_CPU_SR_Save
    os_core.o(i.OSTimeTick) refers to os_core.o(.data) for OSTime
    os_core.o(i.OS_EventTaskRdy) refers to os_core.o(i.OS_EventTaskRemove) for OS_EventTaskRemove
    os_core.o(i.OS_EventTaskRdy) refers to os_core.o(i.OS_EventTaskRemoveMulti) for OS_EventTaskRemoveMulti
    os_core.o(i.OS_EventTaskRdy) refers to os_core.o(.constdata) for OSUnMapTbl
    os_core.o(i.OS_EventTaskRdy) refers to os_core.o(.bss) for OSTCBPrioTbl
    os_core.o(i.OS_EventTaskRdy) refers to os_core.o(.data) for OSRdyGrp
    os_core.o(i.OS_EventTaskWait) refers to os_core.o(.data) for OSTCBCur
    os_core.o(i.OS_EventTaskWaitMulti) refers to os_core.o(.data) for OSTCBCur
    os_core.o(i.OS_InitEventList) refers to os_core.o(i.OS_MemClr) for OS_MemClr
    os_core.o(i.OS_InitEventList) refers to os_core.o(.bss) for OSEventTbl
    os_core.o(i.OS_InitEventList) refers to os_core.o(.data) for OSEventFreeList
    os_core.o(i.OS_InitMisc) refers to os_core.o(.data) for OSTime
    os_core.o(i.OS_InitRdyList) refers to os_core.o(.data) for OSRdyGrp
    os_core.o(i.OS_InitTCBList) refers to os_core.o(i.OS_MemClr) for OS_MemClr
    os_core.o(i.OS_InitTCBList) refers to os_core.o(.bss) for OSTCBTbl
    os_core.o(i.OS_InitTCBList) refers to os_core.o(.data) for OSTCBList
    os_core.o(i.OS_InitTaskIdle) refers to os_task.o(i.OSTaskCreateExt) for OSTaskCreateExt
    os_core.o(i.OS_InitTaskIdle) refers to os_task.o(i.OSTaskNameSet) for OSTaskNameSet
    os_core.o(i.OS_InitTaskIdle) refers to os_core.o(.bss) for OSTaskIdleStk
    os_core.o(i.OS_InitTaskIdle) refers to os_core.o(i.OS_TaskIdle) for OS_TaskIdle
    os_core.o(i.OS_InitTaskStat) refers to os_task.o(i.OSTaskCreateExt) for OSTaskCreateExt
    os_core.o(i.OS_InitTaskStat) refers to os_task.o(i.OSTaskNameSet) for OSTaskNameSet
    os_core.o(i.OS_InitTaskStat) refers to os_core.o(.bss) for OSTaskStatStk
    os_core.o(i.OS_InitTaskStat) refers to os_core.o(i.OS_TaskStat) for OS_TaskStat
    os_core.o(i.OS_Sched) refers to os_cpu_a.o(.text) for OS_CPU_SR_Save
    os_core.o(i.OS_Sched) refers to os_core.o(i.OS_SchedNew) for OS_SchedNew
    os_core.o(i.OS_Sched) refers to os_core.o(.data) for OSIntNesting
    os_core.o(i.OS_Sched) refers to os_core.o(.bss) for OSTCBPrioTbl
    os_core.o(i.OS_SchedNew) refers to os_core.o(.constdata) for OSUnMapTbl
    os_core.o(i.OS_SchedNew) refers to os_core.o(.data) for OSRdyGrp
    os_core.o(i.OS_TCBInit) refers to os_cpu_a.o(.text) for OS_CPU_SR_Save
    os_core.o(i.OS_TCBInit) refers to os_cpu_c.o(i.OSTCBInitHook) for OSTCBInitHook
    os_core.o(i.OS_TCBInit) refers to os_cpu_c.o(i.OSTaskCreateHook) for OSTaskCreateHook
    os_core.o(i.OS_TCBInit) refers to os_core.o(.data) for OSTCBFreeList
    os_core.o(i.OS_TCBInit) refers to os_core.o(.bss) for OSTCBPrioTbl
    os_core.o(i.OS_TaskIdle) refers to os_cpu_a.o(.text) for OS_CPU_SR_Save
    os_core.o(i.OS_TaskIdle) refers to os_cpu_c.o(i.OSTaskIdleHook) for OSTaskIdleHook
    os_core.o(i.OS_TaskIdle) refers to os_core.o(.data) for OSIdleCtr
    os_core.o(i.OS_TaskStat) refers to os_time.o(i.OSTimeDly) for OSTimeDly
    os_core.o(i.OS_TaskStat) refers to os_task.o(i.OSTaskSuspend) for OSTaskSuspend
    os_core.o(i.OS_TaskStat) refers to os_cpu_a.o(.text) for OS_CPU_SR_Save
    os_core.o(i.OS_TaskStat) refers to os_cpu_c.o(i.OSTaskStatHook) for OSTaskStatHook
    os_core.o(i.OS_TaskStat) refers to os_core.o(i.OS_TaskStatStkChk) for OS_TaskStatStkChk
    os_core.o(i.OS_TaskStat) refers to os_core.o(.data) for OSStatRdy
    os_core.o(i.OS_TaskStatStkChk) refers to os_task.o(i.OSTaskStkChk) for OSTaskStkChk
    os_core.o(i.OS_TaskStatStkChk) refers to os_core.o(.bss) for OSTCBPrioTbl
    os_flag.o(i.OSFlagAccept) refers to os_cpu_a.o(.text) for OS_CPU_SR_Save
    os_flag.o(i.OSFlagCreate) refers to os_cpu_a.o(.text) for OS_CPU_SR_Save
    os_flag.o(i.OSFlagCreate) refers to os_core.o(.data) for OSIntNesting
    os_flag.o(i.OSFlagDel) refers to os_cpu_a.o(.text) for OS_CPU_SR_Save
    os_flag.o(i.OSFlagDel) refers to os_flag.o(i.OS_FlagTaskRdy) for OS_FlagTaskRdy
    os_flag.o(i.OSFlagDel) refers to os_core.o(i.OS_Sched) for OS_Sched
    os_flag.o(i.OSFlagDel) refers to os_core.o(.data) for OSIntNesting
    os_flag.o(i.OSFlagNameGet) refers to os_cpu_a.o(.text) for OS_CPU_SR_Save
    os_flag.o(i.OSFlagNameGet) refers to os_core.o(i.OS_StrCopy) for OS_StrCopy
    os_flag.o(i.OSFlagNameGet) refers to os_core.o(.data) for OSIntNesting
    os_flag.o(i.OSFlagNameSet) refers to os_cpu_a.o(.text) for OS_CPU_SR_Save
    os_flag.o(i.OSFlagNameSet) refers to os_core.o(i.OS_StrLen) for OS_StrLen
    os_flag.o(i.OSFlagNameSet) refers to os_core.o(i.OS_StrCopy) for OS_StrCopy
    os_flag.o(i.OSFlagNameSet) refers to os_core.o(.data) for OSIntNesting
    os_flag.o(i.OSFlagPend) refers to os_cpu_a.o(.text) for OS_CPU_SR_Save
    os_flag.o(i.OSFlagPend) refers to os_flag.o(i.OS_FlagBlock) for OS_FlagBlock
    os_flag.o(i.OSFlagPend) refers to os_core.o(i.OS_Sched) for OS_Sched
    os_flag.o(i.OSFlagPend) refers to os_flag.o(i.OS_FlagUnlink) for OS_FlagUnlink
    os_flag.o(i.OSFlagPend) refers to os_core.o(.data) for OSIntNesting
    os_flag.o(i.OSFlagPendGetFlagsRdy) refers to os_cpu_a.o(.text) for OS_CPU_SR_Save
    os_flag.o(i.OSFlagPendGetFlagsRdy) refers to os_core.o(.data) for OSTCBCur
    os_flag.o(i.OSFlagPost) refers to os_cpu_a.o(.text) for OS_CPU_SR_Save
    os_flag.o(i.OSFlagPost) refers to os_flag.o(i.OS_FlagTaskRdy) for OS_FlagTaskRdy
    os_flag.o(i.OSFlagPost) refers to os_core.o(i.OS_Sched) for OS_Sched
    os_flag.o(i.OSFlagQuery) refers to os_cpu_a.o(.text) for OS_CPU_SR_Save
    os_flag.o(i.OS_FlagBlock) refers to os_core.o(.data) for OSTCBCur
    os_flag.o(i.OS_FlagInit) refers to os_core.o(i.OS_MemClr) for OS_MemClr
    os_flag.o(i.OS_FlagInit) refers to os_core.o(.bss) for OSFlagTbl
    os_flag.o(i.OS_FlagInit) refers to os_core.o(.data) for OSFlagFreeList
    os_flag.o(i.OS_FlagTaskRdy) refers to os_flag.o(i.OS_FlagUnlink) for OS_FlagUnlink
    os_flag.o(i.OS_FlagTaskRdy) refers to os_core.o(.data) for OSRdyGrp
    os_mbox.o(i.OSMboxAccept) refers to os_cpu_a.o(.text) for OS_CPU_SR_Save
    os_mbox.o(i.OSMboxCreate) refers to os_cpu_a.o(.text) for OS_CPU_SR_Save
    os_mbox.o(i.OSMboxCreate) refers to os_core.o(i.OS_EventWaitListInit) for OS_EventWaitListInit
    os_mbox.o(i.OSMboxCreate) refers to os_core.o(.data) for OSIntNesting
    os_mbox.o(i.OSMboxDel) refers to os_cpu_a.o(.text) for OS_CPU_SR_Save
    os_mbox.o(i.OSMboxDel) refers to os_core.o(i.OS_EventTaskRdy) for OS_EventTaskRdy
    os_mbox.o(i.OSMboxDel) refers to os_core.o(i.OS_Sched) for OS_Sched
    os_mbox.o(i.OSMboxDel) refers to os_core.o(.data) for OSIntNesting
    os_mbox.o(i.OSMboxPend) refers to os_cpu_a.o(.text) for OS_CPU_SR_Save
    os_mbox.o(i.OSMboxPend) refers to os_core.o(i.OS_EventTaskWait) for OS_EventTaskWait
    os_mbox.o(i.OSMboxPend) refers to os_core.o(i.OS_Sched) for OS_Sched
    os_mbox.o(i.OSMboxPend) refers to os_core.o(i.OS_EventTaskRemove) for OS_EventTaskRemove
    os_mbox.o(i.OSMboxPend) refers to os_core.o(.data) for OSIntNesting
    os_mbox.o(i.OSMboxPendAbort) refers to os_cpu_a.o(.text) for OS_CPU_SR_Save
    os_mbox.o(i.OSMboxPendAbort) refers to os_core.o(i.OS_EventTaskRdy) for OS_EventTaskRdy
    os_mbox.o(i.OSMboxPendAbort) refers to os_core.o(i.OS_Sched) for OS_Sched
    os_mbox.o(i.OSMboxPost) refers to os_cpu_a.o(.text) for OS_CPU_SR_Save
    os_mbox.o(i.OSMboxPost) refers to os_core.o(i.OS_EventTaskRdy) for OS_EventTaskRdy
    os_mbox.o(i.OSMboxPost) refers to os_core.o(i.OS_Sched) for OS_Sched
    os_mbox.o(i.OSMboxPostOpt) refers to os_cpu_a.o(.text) for OS_CPU_SR_Save
    os_mbox.o(i.OSMboxPostOpt) refers to os_core.o(i.OS_EventTaskRdy) for OS_EventTaskRdy
    os_mbox.o(i.OSMboxPostOpt) refers to os_core.o(i.OS_Sched) for OS_Sched
    os_mbox.o(i.OSMboxQuery) refers to os_cpu_a.o(.text) for OS_CPU_SR_Save
    os_sem.o(i.OSSemAccept) refers to os_cpu_a.o(.text) for OS_CPU_SR_Save
    os_sem.o(i.OSSemCreate) refers to os_cpu_a.o(.text) for OS_CPU_SR_Save
    os_sem.o(i.OSSemCreate) refers to os_core.o(i.OS_EventWaitListInit) for OS_EventWaitListInit
    os_sem.o(i.OSSemCreate) refers to os_core.o(.data) for OSIntNesting
    os_sem.o(i.OSSemDel) refers to os_cpu_a.o(.text) for OS_CPU_SR_Save
    os_sem.o(i.OSSemDel) refers to os_core.o(i.OS_EventTaskRdy) for OS_EventTaskRdy
    os_sem.o(i.OSSemDel) refers to os_core.o(i.OS_Sched) for OS_Sched
    os_sem.o(i.OSSemDel) refers to os_core.o(.data) for OSIntNesting
    os_sem.o(i.OSSemPend) refers to os_cpu_a.o(.text) for OS_CPU_SR_Save
    os_sem.o(i.OSSemPend) refers to os_core.o(i.OS_EventTaskWait) for OS_EventTaskWait
    os_sem.o(i.OSSemPend) refers to os_core.o(i.OS_Sched) for OS_Sched
    os_sem.o(i.OSSemPend) refers to os_core.o(i.OS_EventTaskRemove) for OS_EventTaskRemove
    os_sem.o(i.OSSemPend) refers to os_core.o(.data) for OSIntNesting
    os_sem.o(i.OSSemPendAbort) refers to os_cpu_a.o(.text) for OS_CPU_SR_Save
    os_sem.o(i.OSSemPendAbort) refers to os_core.o(i.OS_EventTaskRdy) for OS_EventTaskRdy
    os_sem.o(i.OSSemPendAbort) refers to os_core.o(i.OS_Sched) for OS_Sched
    os_sem.o(i.OSSemPost) refers to os_cpu_a.o(.text) for OS_CPU_SR_Save
    os_sem.o(i.OSSemPost) refers to os_core.o(i.OS_EventTaskRdy) for OS_EventTaskRdy
    os_sem.o(i.OSSemPost) refers to os_core.o(i.OS_Sched) for OS_Sched
    os_sem.o(i.OSSemQuery) refers to os_cpu_a.o(.text) for OS_CPU_SR_Save
    os_sem.o(i.OSSemSet) refers to os_cpu_a.o(.text) for OS_CPU_SR_Save
    os_task.o(i.OSTaskChangePrio) refers to os_cpu_a.o(.text) for OS_CPU_SR_Save
    os_task.o(i.OSTaskChangePrio) refers to os_core.o(i.OS_Sched) for OS_Sched
    os_task.o(i.OSTaskChangePrio) refers to os_core.o(.bss) for OSTCBPrioTbl
    os_task.o(i.OSTaskChangePrio) refers to os_core.o(.data) for OSTCBCur
    os_task.o(i.OSTaskCreate) refers to os_cpu_a.o(.text) for OS_CPU_SR_Save
    os_task.o(i.OSTaskCreate) refers to os_cpu_c.o(i.OSTaskStkInit) for OSTaskStkInit
    os_task.o(i.OSTaskCreate) refers to os_core.o(i.OS_TCBInit) for OS_TCBInit
    os_task.o(i.OSTaskCreate) refers to os_core.o(i.OS_Sched) for OS_Sched
    os_task.o(i.OSTaskCreate) refers to os_core.o(.data) for OSIntNesting
    os_task.o(i.OSTaskCreate) refers to os_core.o(.bss) for OSTCBPrioTbl
    os_task.o(i.OSTaskCreateExt) refers to os_cpu_a.o(.text) for OS_CPU_SR_Save
    os_task.o(i.OSTaskCreateExt) refers to os_task.o(i.OS_TaskStkClr) for OS_TaskStkClr
    os_task.o(i.OSTaskCreateExt) refers to os_cpu_c.o(i.OSTaskStkInit) for OSTaskStkInit
    os_task.o(i.OSTaskCreateExt) refers to os_core.o(i.OS_TCBInit) for OS_TCBInit
    os_task.o(i.OSTaskCreateExt) refers to os_core.o(i.OS_Sched) for OS_Sched
    os_task.o(i.OSTaskCreateExt) refers to os_core.o(.data) for OSIntNesting
    os_task.o(i.OSTaskCreateExt) refers to os_core.o(.bss) for OSTCBPrioTbl
    os_task.o(i.OSTaskDel) refers to os_cpu_a.o(.text) for OS_CPU_SR_Save
    os_task.o(i.OSTaskDel) refers to os_core.o(i.OS_EventTaskRemove) for OS_EventTaskRemove
    os_task.o(i.OSTaskDel) refers to os_core.o(i.OS_EventTaskRemoveMulti) for OS_EventTaskRemoveMulti
    os_task.o(i.OSTaskDel) refers to os_flag.o(i.OS_FlagUnlink) for OS_FlagUnlink
    os_task.o(i.OSTaskDel) refers to os_core.o(i.OS_Dummy) for OS_Dummy
    os_task.o(i.OSTaskDel) refers to os_cpu_c.o(i.OSTaskDelHook) for OSTaskDelHook
    os_task.o(i.OSTaskDel) refers to os_core.o(i.OS_Sched) for OS_Sched
    os_task.o(i.OSTaskDel) refers to os_core.o(.data) for OSIntNesting
    os_task.o(i.OSTaskDel) refers to os_core.o(.bss) for OSTCBPrioTbl
    os_task.o(i.OSTaskDelReq) refers to os_cpu_a.o(.text) for OS_CPU_SR_Save
    os_task.o(i.OSTaskDelReq) refers to os_core.o(.data) for OSTCBCur
    os_task.o(i.OSTaskDelReq) refers to os_core.o(.bss) for OSTCBPrioTbl
    os_task.o(i.OSTaskNameGet) refers to os_cpu_a.o(.text) for OS_CPU_SR_Save
    os_task.o(i.OSTaskNameGet) refers to os_core.o(i.OS_StrCopy) for OS_StrCopy
    os_task.o(i.OSTaskNameGet) refers to os_core.o(.data) for OSIntNesting
    os_task.o(i.OSTaskNameGet) refers to os_core.o(.bss) for OSTCBPrioTbl
    os_task.o(i.OSTaskNameSet) refers to os_cpu_a.o(.text) for OS_CPU_SR_Save
    os_task.o(i.OSTaskNameSet) refers to os_core.o(i.OS_StrLen) for OS_StrLen
    os_task.o(i.OSTaskNameSet) refers to os_core.o(i.OS_StrCopy) for OS_StrCopy
    os_task.o(i.OSTaskNameSet) refers to os_core.o(.data) for OSIntNesting
    os_task.o(i.OSTaskNameSet) refers to os_core.o(.bss) for OSTCBPrioTbl
    os_task.o(i.OSTaskQuery) refers to os_cpu_a.o(.text) for OS_CPU_SR_Save
    os_task.o(i.OSTaskQuery) refers to os_core.o(i.OS_MemCopy) for OS_MemCopy
    os_task.o(i.OSTaskQuery) refers to os_core.o(.data) for OSTCBCur
    os_task.o(i.OSTaskQuery) refers to os_core.o(.bss) for OSTCBPrioTbl
    os_task.o(i.OSTaskResume) refers to os_cpu_a.o(.text) for OS_CPU_SR_Save
    os_task.o(i.OSTaskResume) refers to os_core.o(i.OS_Sched) for OS_Sched
    os_task.o(i.OSTaskResume) refers to os_core.o(.bss) for OSTCBPrioTbl
    os_task.o(i.OSTaskResume) refers to os_core.o(.data) for OSRdyGrp
    os_task.o(i.OSTaskStkChk) refers to os_cpu_a.o(.text) for OS_CPU_SR_Save
    os_task.o(i.OSTaskStkChk) refers to os_core.o(.data) for OSTCBCur
    os_task.o(i.OSTaskStkChk) refers to os_core.o(.bss) for OSTCBPrioTbl
    os_task.o(i.OSTaskSuspend) refers to os_cpu_a.o(.text) for OS_CPU_SR_Save
    os_task.o(i.OSTaskSuspend) refers to os_core.o(i.OS_Sched) for OS_Sched
    os_task.o(i.OSTaskSuspend) refers to os_core.o(.data) for OSTCBCur
    os_task.o(i.OSTaskSuspend) refers to os_core.o(.bss) for OSTCBPrioTbl
    os_time.o(i.OSTimeDly) refers to os_cpu_a.o(.text) for OS_CPU_SR_Save
    os_time.o(i.OSTimeDly) refers to os_core.o(i.OS_Sched) for OS_Sched
    os_time.o(i.OSTimeDly) refers to os_core.o(.data) for OSIntNesting
    os_time.o(i.OSTimeDlyHMSM) refers to os_time.o(i.OSTimeDly) for OSTimeDly
    os_time.o(i.OSTimeDlyHMSM) refers to os_core.o(.data) for OSIntNesting
    os_time.o(i.OSTimeDlyResume) refers to os_cpu_a.o(.text) for OS_CPU_SR_Save
    os_time.o(i.OSTimeDlyResume) refers to os_core.o(i.OS_Sched) for OS_Sched
    os_time.o(i.OSTimeDlyResume) refers to os_core.o(.bss) for OSTCBPrioTbl
    os_time.o(i.OSTimeDlyResume) refers to os_core.o(.data) for OSRdyGrp
    os_time.o(i.OSTimeGet) refers to os_cpu_a.o(.text) for OS_CPU_SR_Save
    os_time.o(i.OSTimeGet) refers to os_core.o(.data) for OSTime
    os_time.o(i.OSTimeSet) refers to os_cpu_a.o(.text) for OS_CPU_SR_Save
    os_time.o(i.OSTimeSet) refers to os_core.o(.data) for OSTime
    os_cpu_c.o(i.OSTCBInitHook) refers to tasks_usbcli.o(i.App_TCBInitHook) for App_TCBInitHook
    os_cpu_c.o(i.OSTaskCreateHook) refers to tasks_usbcli.o(i.App_TaskCreateHook) for App_TaskCreateHook
    os_cpu_c.o(i.OSTaskDelHook) refers to tasks_usbcli.o(i.App_TaskDelHook) for App_TaskDelHook
    os_cpu_c.o(i.OSTaskIdleHook) refers to tasks_usbcli.o(i.App_TaskIdleHook) for App_TaskIdleHook
    os_cpu_c.o(i.OSTaskStatHook) refers to tasks_usbcli.o(i.App_TaskStatHook) for App_TaskStatHook
    os_cpu_c.o(i.OSTaskSwHook) refers to tasks_usbcli.o(i.App_TaskSwHook) for App_TaskSwHook
    os_cpu_c.o(i.OS_CPU_SysTickHandler) refers to os_cpu_a.o(.text) for OS_CPU_SR_Save
    os_cpu_c.o(i.OS_CPU_SysTickHandler) refers to os_core.o(i.OSTimeTick) for OSTimeTick
    os_cpu_c.o(i.OS_CPU_SysTickHandler) refers to os_core.o(i.OSIntExit) for OSIntExit
    os_cpu_c.o(i.OS_CPU_SysTickHandler) refers to os_core.o(.data) for OSIntNesting
    os_cpu_c.o(i.OS_CPU_SysTickInit) refers to bsp_isv2.o(i.OS_CPU_SysTickClkFreq) for OS_CPU_SysTickClkFreq
    os_cpu_a.o(.text) refers to os_core.o(.data) for OSRunning
    os_cpu_a.o(.text) refers to os_cpu_c.o(i.OSTaskSwHook) for OSTaskSwHook
    lib_mem.o(i.Mem_Clr) refers to lib_mem.o(i.Mem_Set) for Mem_Set
    lib_str.o(i.Str_Char_Last) refers to lib_str.o(i.Str_Len) for Str_Len
    lib_str.o(i.Str_Str) refers to lib_str.o(i.Str_Len) for Str_Len
    lib_str.o(i.Str_Str) refers to lib_str.o(i.Str_Cmp_N) for Str_Cmp_N
    entry.o(.ARM.Collect$$$$00000000) refers (Special) to entry7.o(.ARM.Collect$$$$00000007) for _main_init
    entry.o(.ARM.Collect$$$$00000000) refers (Special) to entry5.o(.ARM.Collect$$$$00000004) for _main_scatterload
    entry.o(.ARM.Collect$$$$00000000) refers (Special) to entry4.o(.ARM.Collect$$$$00000003) for _main_stk
    printfb.o(i.__0fprintf$bare) refers to printfb.o(i._printf_core) for _printf_core
    printfb.o(i.__0fprintf$bare) refers to bsp_isv2.o(i.fputc) for fputc
    printfb.o(i.__0printf$bare) refers to printfb.o(i._printf_core) for _printf_core
    printfb.o(i.__0printf$bare) refers to bsp_isv2.o(i.fputc) for fputc
    printfb.o(i.__0printf$bare) refers to stdout.o(.data) for __stdout
    printfb.o(i.__0snprintf$bare) refers to printfb.o(i._printf_core) for _printf_core
    printfb.o(i.__0snprintf$bare) refers to printfb.o(i._snputc) for _snputc
    printfb.o(i.__0sprintf$bare) refers to printfb.o(i._printf_core) for _printf_core
    printfb.o(i.__0sprintf$bare) refers to printfb.o(i._sputc) for _sputc
    printfb.o(i.__0vfprintf$bare) refers to printfb.o(i._printf_core) for _printf_core
    printfb.o(i.__0vfprintf$bare) refers to bsp_isv2.o(i.fputc) for fputc
    printfb.o(i.__0vprintf$bare) refers to printfb.o(i._printf_core) for _printf_core
    printfb.o(i.__0vprintf$bare) refers to bsp_isv2.o(i.fputc) for fputc
    printfb.o(i.__0vprintf$bare) refers to stdout.o(.data) for __stdout
    printfb.o(i.__0vsnprintf$bare) refers to printfb.o(i._printf_core) for _printf_core
    printfb.o(i.__0vsnprintf$bare) refers to printfb.o(i._snputc) for _snputc
    printfb.o(i.__0vsprintf$bare) refers to printfb.o(i._printf_core) for _printf_core
    printfb.o(i.__0vsprintf$bare) refers to printfb.o(i._sputc) for _sputc
    printf0.o(i.__0fprintf$0) refers to printf0.o(i._printf_core) for _printf_core
    printf0.o(i.__0fprintf$0) refers to bsp_isv2.o(i.fputc) for fputc
    printf0.o(i.__0printf$0) refers to printf0.o(i._printf_core) for _printf_core
    printf0.o(i.__0printf$0) refers to bsp_isv2.o(i.fputc) for fputc
    printf0.o(i.__0printf$0) refers to stdout.o(.data) for __stdout
    printf0.o(i.__0snprintf$0) refers to printf0.o(i._printf_core) for _printf_core
    printf0.o(i.__0snprintf$0) refers to printf0.o(i._snputc) for _snputc
    printf0.o(i.__0sprintf$0) refers to printf0.o(i._printf_core) for _printf_core
    printf0.o(i.__0sprintf$0) refers to printf0.o(i._sputc) for _sputc
    printf0.o(i.__0vfprintf$0) refers to printf0.o(i._printf_core) for _printf_core
    printf0.o(i.__0vfprintf$0) refers to bsp_isv2.o(i.fputc) for fputc
    printf0.o(i.__0vprintf$0) refers to printf0.o(i._printf_core) for _printf_core
    printf0.o(i.__0vprintf$0) refers to bsp_isv2.o(i.fputc) for fputc
    printf0.o(i.__0vprintf$0) refers to stdout.o(.data) for __stdout
    printf0.o(i.__0vsnprintf$0) refers to printf0.o(i._printf_core) for _printf_core
    printf0.o(i.__0vsnprintf$0) refers to printf0.o(i._snputc) for _snputc
    printf0.o(i.__0vsprintf$0) refers to printf0.o(i._printf_core) for _printf_core
    printf0.o(i.__0vsprintf$0) refers to printf0.o(i._sputc) for _sputc
    printf1.o(i.__0fprintf$1) refers to printf1.o(i._printf_core) for _printf_core
    printf1.o(i.__0fprintf$1) refers to bsp_isv2.o(i.fputc) for fputc
    printf1.o(i.__0printf$1) refers to printf1.o(i._printf_core) for _printf_core
    printf1.o(i.__0printf$1) refers to bsp_isv2.o(i.fputc) for fputc
    printf1.o(i.__0printf$1) refers to stdout.o(.data) for __stdout
    printf1.o(i.__0snprintf$1) refers to printf1.o(i._printf_core) for _printf_core
    printf1.o(i.__0snprintf$1) refers to printf1.o(i._snputc) for _snputc
    printf1.o(i.__0sprintf$1) refers to printf1.o(i._printf_core) for _printf_core
    printf1.o(i.__0sprintf$1) refers to printf1.o(i._sputc) for _sputc
    printf1.o(i.__0vfprintf$1) refers to printf1.o(i._printf_core) for _printf_core
    printf1.o(i.__0vfprintf$1) refers to bsp_isv2.o(i.fputc) for fputc
    printf1.o(i.__0vprintf$1) refers to printf1.o(i._printf_core) for _printf_core
    printf1.o(i.__0vprintf$1) refers to bsp_isv2.o(i.fputc) for fputc
    printf1.o(i.__0vprintf$1) refers to stdout.o(.data) for __stdout
    printf1.o(i.__0vsnprintf$1) refers to printf1.o(i._printf_core) for _printf_core
    printf1.o(i.__0vsnprintf$1) refers to printf1.o(i._snputc) for _snputc
    printf1.o(i.__0vsprintf$1) refers to printf1.o(i._printf_core) for _printf_core
    printf1.o(i.__0vsprintf$1) refers to printf1.o(i._sputc) for _sputc
    printf1.o(i._printf_core) refers to uidiv.o(.text) for __aeabi_uidivmod
    printf2.o(i.__0fprintf$2) refers to printf2.o(i._printf_core) for _printf_core
    printf2.o(i.__0fprintf$2) refers to bsp_isv2.o(i.fputc) for fputc
    printf2.o(i.__0printf$2) refers to printf2.o(i._printf_core) for _printf_core
    printf2.o(i.__0printf$2) refers to bsp_isv2.o(i.fputc) for fputc
    printf2.o(i.__0printf$2) refers to stdout.o(.data) for __stdout
    printf2.o(i.__0snprintf$2) refers to printf2.o(i._printf_core) for _printf_core
    printf2.o(i.__0snprintf$2) refers to printf2.o(i._snputc) for _snputc
    printf2.o(i.__0sprintf$2) refers to printf2.o(i._printf_core) for _printf_core
    printf2.o(i.__0sprintf$2) refers to printf2.o(i._sputc) for _sputc
    printf2.o(i.__0vfprintf$2) refers to printf2.o(i._printf_core) for _printf_core
    printf2.o(i.__0vfprintf$2) refers to bsp_isv2.o(i.fputc) for fputc
    printf2.o(i.__0vprintf$2) refers to printf2.o(i._printf_core) for _printf_core
    printf2.o(i.__0vprintf$2) refers to bsp_isv2.o(i.fputc) for fputc
    printf2.o(i.__0vprintf$2) refers to stdout.o(.data) for __stdout
    printf2.o(i.__0vsnprintf$2) refers to printf2.o(i._printf_core) for _printf_core
    printf2.o(i.__0vsnprintf$2) refers to printf2.o(i._snputc) for _snputc
    printf2.o(i.__0vsprintf$2) refers to printf2.o(i._printf_core) for _printf_core
    printf2.o(i.__0vsprintf$2) refers to printf2.o(i._sputc) for _sputc
    printf3.o(i.__0fprintf$3) refers to printf3.o(i._printf_core) for _printf_core
    printf3.o(i.__0fprintf$3) refers to bsp_isv2.o(i.fputc) for fputc
    printf3.o(i.__0printf$3) refers to printf3.o(i._printf_core) for _printf_core
    printf3.o(i.__0printf$3) refers to bsp_isv2.o(i.fputc) for fputc
    printf3.o(i.__0printf$3) refers to stdout.o(.data) for __stdout
    printf3.o(i.__0snprintf$3) refers to printf3.o(i._printf_core) for _printf_core
    printf3.o(i.__0snprintf$3) refers to printf3.o(i._snputc) for _snputc
    printf3.o(i.__0sprintf$3) refers to printf3.o(i._printf_core) for _printf_core
    printf3.o(i.__0sprintf$3) refers to printf3.o(i._sputc) for _sputc
    printf3.o(i.__0vfprintf$3) refers to printf3.o(i._printf_core) for _printf_core
    printf3.o(i.__0vfprintf$3) refers to bsp_isv2.o(i.fputc) for fputc
    printf3.o(i.__0vprintf$3) refers to printf3.o(i._printf_core) for _printf_core
    printf3.o(i.__0vprintf$3) refers to bsp_isv2.o(i.fputc) for fputc
    printf3.o(i.__0vprintf$3) refers to stdout.o(.data) for __stdout
    printf3.o(i.__0vsnprintf$3) refers to printf3.o(i._printf_core) for _printf_core
    printf3.o(i.__0vsnprintf$3) refers to printf3.o(i._snputc) for _snputc
    printf3.o(i.__0vsprintf$3) refers to printf3.o(i._printf_core) for _printf_core
    printf3.o(i.__0vsprintf$3) refers to printf3.o(i._sputc) for _sputc
    printf3.o(i._printf_core) refers to uidiv.o(.text) for __aeabi_uidivmod
    printf4.o(i.__0fprintf$4) refers to printf4.o(i._printf_core) for _printf_core
    printf4.o(i.__0fprintf$4) refers to bsp_isv2.o(i.fputc) for fputc
    printf4.o(i.__0printf$4) refers to printf4.o(i._printf_core) for _printf_core
    printf4.o(i.__0printf$4) refers to bsp_isv2.o(i.fputc) for fputc
    printf4.o(i.__0printf$4) refers to stdout.o(.data) for __stdout
    printf4.o(i.__0snprintf$4) refers to printf4.o(i._printf_core) for _printf_core
    printf4.o(i.__0snprintf$4) refers to printf4.o(i._snputc) for _snputc
    printf4.o(i.__0sprintf$4) refers to printf4.o(i._printf_core) for _printf_core
    printf4.o(i.__0sprintf$4) refers to printf4.o(i._sputc) for _sputc
    printf4.o(i.__0vfprintf$4) refers to printf4.o(i._printf_core) for _printf_core
    printf4.o(i.__0vfprintf$4) refers to bsp_isv2.o(i.fputc) for fputc
    printf4.o(i.__0vprintf$4) refers to printf4.o(i._printf_core) for _printf_core
    printf4.o(i.__0vprintf$4) refers to bsp_isv2.o(i.fputc) for fputc
    printf4.o(i.__0vprintf$4) refers to stdout.o(.data) for __stdout
    printf4.o(i.__0vsnprintf$4) refers to printf4.o(i._printf_core) for _printf_core
    printf4.o(i.__0vsnprintf$4) refers to printf4.o(i._snputc) for _snputc
    printf4.o(i.__0vsprintf$4) refers to printf4.o(i._printf_core) for _printf_core
    printf4.o(i.__0vsprintf$4) refers to printf4.o(i._sputc) for _sputc
    printf4.o(i._printf_core) refers to uldiv.o(.text) for __aeabi_uldivmod
    printf5.o(i.__0fprintf$5) refers to printf5.o(i._printf_core) for _printf_core
    printf5.o(i.__0fprintf$5) refers to bsp_isv2.o(i.fputc) for fputc
    printf5.o(i.__0printf$5) refers to printf5.o(i._printf_core) for _printf_core
    printf5.o(i.__0printf$5) refers to bsp_isv2.o(i.fputc) for fputc
    printf5.o(i.__0printf$5) refers to stdout.o(.data) for __stdout
    printf5.o(i.__0snprintf$5) refers to printf5.o(i._printf_core) for _printf_core
    printf5.o(i.__0snprintf$5) refers to printf5.o(i._snputc) for _snputc
    printf5.o(i.__0sprintf$5) refers to printf5.o(i._printf_core) for _printf_core
    printf5.o(i.__0sprintf$5) refers to printf5.o(i._sputc) for _sputc
    printf5.o(i.__0vfprintf$5) refers to printf5.o(i._printf_core) for _printf_core
    printf5.o(i.__0vfprintf$5) refers to bsp_isv2.o(i.fputc) for fputc
    printf5.o(i.__0vprintf$5) refers to printf5.o(i._printf_core) for _printf_core
    printf5.o(i.__0vprintf$5) refers to bsp_isv2.o(i.fputc) for fputc
    printf5.o(i.__0vprintf$5) refers to stdout.o(.data) for __stdout
    printf5.o(i.__0vsnprintf$5) refers to printf5.o(i._printf_core) for _printf_core
    printf5.o(i.__0vsnprintf$5) refers to printf5.o(i._snputc) for _snputc
    printf5.o(i.__0vsprintf$5) refers to printf5.o(i._printf_core) for _printf_core
    printf5.o(i.__0vsprintf$5) refers to printf5.o(i._sputc) for _sputc
    printf5.o(i._printf_core) refers to uldiv.o(.text) for __aeabi_uldivmod
    printf6.o(i.__0fprintf$6) refers to printf6.o(i._printf_core) for _printf_core
    printf6.o(i.__0fprintf$6) refers to bsp_isv2.o(i.fputc) for fputc
    printf6.o(i.__0printf$6) refers to printf6.o(i._printf_core) for _printf_core
    printf6.o(i.__0printf$6) refers to bsp_isv2.o(i.fputc) for fputc
    printf6.o(i.__0printf$6) refers to stdout.o(.data) for __stdout
    printf6.o(i.__0snprintf$6) refers to printf6.o(i._printf_core) for _printf_core
    printf6.o(i.__0snprintf$6) refers to printf6.o(i._snputc) for _snputc
    printf6.o(i.__0sprintf$6) refers to printf6.o(i._printf_core) for _printf_core
    printf6.o(i.__0sprintf$6) refers to printf6.o(i._sputc) for _sputc
    printf6.o(i.__0vfprintf$6) refers to printf6.o(i._printf_core) for _printf_core
    printf6.o(i.__0vfprintf$6) refers to bsp_isv2.o(i.fputc) for fputc
    printf6.o(i.__0vprintf$6) refers to printf6.o(i._printf_core) for _printf_core
    printf6.o(i.__0vprintf$6) refers to bsp_isv2.o(i.fputc) for fputc
    printf6.o(i.__0vprintf$6) refers to stdout.o(.data) for __stdout
    printf6.o(i.__0vsnprintf$6) refers to printf6.o(i._printf_core) for _printf_core
    printf6.o(i.__0vsnprintf$6) refers to printf6.o(i._snputc) for _snputc
    printf6.o(i.__0vsprintf$6) refers to printf6.o(i._printf_core) for _printf_core
    printf6.o(i.__0vsprintf$6) refers to printf6.o(i._sputc) for _sputc
    printf6.o(i._printf_core) refers to printf6.o(i._printf_pre_padding) for _printf_pre_padding
    printf6.o(i._printf_core) refers to uidiv.o(.text) for __aeabi_uidivmod
    printf6.o(i._printf_core) refers to printf6.o(i._printf_post_padding) for _printf_post_padding
    printf7.o(i.__0fprintf$7) refers to printf7.o(i._printf_core) for _printf_core
    printf7.o(i.__0fprintf$7) refers to bsp_isv2.o(i.fputc) for fputc
    printf7.o(i.__0printf$7) refers to printf7.o(i._printf_core) for _printf_core
    printf7.o(i.__0printf$7) refers to bsp_isv2.o(i.fputc) for fputc
    printf7.o(i.__0printf$7) refers to stdout.o(.data) for __stdout
    printf7.o(i.__0snprintf$7) refers to printf7.o(i._printf_core) for _printf_core
    printf7.o(i.__0snprintf$7) refers to printf7.o(i._snputc) for _snputc
    printf7.o(i.__0sprintf$7) refers to printf7.o(i._printf_core) for _printf_core
    printf7.o(i.__0sprintf$7) refers to printf7.o(i._sputc) for _sputc
    printf7.o(i.__0vfprintf$7) refers to printf7.o(i._printf_core) for _printf_core
    printf7.o(i.__0vfprintf$7) refers to bsp_isv2.o(i.fputc) for fputc
    printf7.o(i.__0vprintf$7) refers to printf7.o(i._printf_core) for _printf_core
    printf7.o(i.__0vprintf$7) refers to bsp_isv2.o(i.fputc) for fputc
    printf7.o(i.__0vprintf$7) refers to stdout.o(.data) for __stdout
    printf7.o(i.__0vsnprintf$7) refers to printf7.o(i._printf_core) for _printf_core
    printf7.o(i.__0vsnprintf$7) refers to printf7.o(i._snputc) for _snputc
    printf7.o(i.__0vsprintf$7) refers to printf7.o(i._printf_core) for _printf_core
    printf7.o(i.__0vsprintf$7) refers to printf7.o(i._sputc) for _sputc
    printf7.o(i._printf_core) refers to printf7.o(i._printf_pre_padding) for _printf_pre_padding
    printf7.o(i._printf_core) refers to uldiv.o(.text) for __aeabi_uldivmod
    printf7.o(i._printf_core) refers to printf7.o(i._printf_post_padding) for _printf_post_padding
    printf8.o(i.__0fprintf$8) refers to printf8.o(i._printf_core) for _printf_core
    printf8.o(i.__0fprintf$8) refers to bsp_isv2.o(i.fputc) for fputc
    printf8.o(i.__0printf$8) refers to printf8.o(i._printf_core) for _printf_core
    printf8.o(i.__0printf$8) refers to bsp_isv2.o(i.fputc) for fputc
    printf8.o(i.__0printf$8) refers to stdout.o(.data) for __stdout
    printf8.o(i.__0snprintf$8) refers to printf8.o(i._printf_core) for _printf_core
    printf8.o(i.__0snprintf$8) refers to printf8.o(i._snputc) for _snputc
    printf8.o(i.__0sprintf$8) refers to printf8.o(i._printf_core) for _printf_core
    printf8.o(i.__0sprintf$8) refers to printf8.o(i._sputc) for _sputc
    printf8.o(i.__0vfprintf$8) refers to printf8.o(i._printf_core) for _printf_core
    printf8.o(i.__0vfprintf$8) refers to bsp_isv2.o(i.fputc) for fputc
    printf8.o(i.__0vprintf$8) refers to printf8.o(i._printf_core) for _printf_core
    printf8.o(i.__0vprintf$8) refers to bsp_isv2.o(i.fputc) for fputc
    printf8.o(i.__0vprintf$8) refers to stdout.o(.data) for __stdout
    printf8.o(i.__0vsnprintf$8) refers to printf8.o(i._printf_core) for _printf_core
    printf8.o(i.__0vsnprintf$8) refers to printf8.o(i._snputc) for _snputc
    printf8.o(i.__0vsprintf$8) refers to printf8.o(i._printf_core) for _printf_core
    printf8.o(i.__0vsprintf$8) refers to printf8.o(i._sputc) for _sputc
    printf8.o(i._printf_core) refers to printf8.o(i._printf_pre_padding) for _printf_pre_padding
    printf8.o(i._printf_core) refers to uldiv.o(.text) for __aeabi_uldivmod
    printf8.o(i._printf_core) refers to printf8.o(i._printf_post_padding) for _printf_post_padding
    printfa.o(i.__0fprintf) refers (Special) to iusefp.o(.text) for __I$use$fp
    printfa.o(i.__0fprintf) refers to printfa.o(i._printf_core) for _printf_core
    printfa.o(i.__0fprintf) refers to bsp_isv2.o(i.fputc) for fputc
    printfa.o(i.__0printf) refers (Special) to iusefp.o(.text) for __I$use$fp
    printfa.o(i.__0printf) refers to printfa.o(i._printf_core) for _printf_core
    printfa.o(i.__0printf) refers to bsp_isv2.o(i.fputc) for fputc
    printfa.o(i.__0printf) refers to stdout.o(.data) for __stdout
    printfa.o(i.__0snprintf) refers (Special) to iusefp.o(.text) for __I$use$fp
    printfa.o(i.__0snprintf) refers to printfa.o(i._printf_core) for _printf_core
    printfa.o(i.__0snprintf) refers to printfa.o(i._snputc) for _snputc
    printfa.o(i.__0sprintf) refers (Special) to iusefp.o(.text) for __I$use$fp
    printfa.o(i.__0sprintf) refers to printfa.o(i._printf_core) for _printf_core
    printfa.o(i.__0sprintf) refers to printfa.o(i._sputc) for _sputc
    printfa.o(i.__0vfprintf) refers (Special) to iusefp.o(.text) for __I$use$fp
    printfa.o(i.__0vfprintf) refers to printfa.o(i._printf_core) for _printf_core
    printfa.o(i.__0vfprintf) refers to bsp_isv2.o(i.fputc) for fputc
    printfa.o(i.__0vprintf) refers (Special) to iusefp.o(.text) for __I$use$fp
    printfa.o(i.__0vprintf) refers to printfa.o(i._printf_core) for _printf_core
    printfa.o(i.__0vprintf) refers to bsp_isv2.o(i.fputc) for fputc
    printfa.o(i.__0vprintf) refers to stdout.o(.data) for __stdout
    printfa.o(i.__0vsnprintf) refers (Special) to iusefp.o(.text) for __I$use$fp
    printfa.o(i.__0vsnprintf) refers to printfa.o(i._printf_core) for _printf_core
    printfa.o(i.__0vsnprintf) refers to printfa.o(i._snputc) for _snputc
    printfa.o(i.__0vsprintf) refers (Special) to iusefp.o(.text) for __I$use$fp
    printfa.o(i.__0vsprintf) refers to printfa.o(i._printf_core) for _printf_core
    printfa.o(i.__0vsprintf) refers to printfa.o(i._sputc) for _sputc
    printfa.o(i._fp_digits) refers (Special) to iusefp.o(.text) for __I$use$fp
    printfa.o(i._fp_digits) refers to dmul.o(.text) for __aeabi_dmul
    printfa.o(i._fp_digits) refers to ddiv.o(.text) for __aeabi_ddiv
    printfa.o(i._fp_digits) refers to cdrcmple.o(.text) for __aeabi_cdrcmple
    printfa.o(i._fp_digits) refers to dadd.o(.text) for __aeabi_dadd
    printfa.o(i._fp_digits) refers to dfixul.o(.text) for __aeabi_d2ulz
    printfa.o(i._fp_digits) refers to uldiv.o(.text) for __aeabi_uldivmod
    printfa.o(i._printf_core) refers (Special) to iusefp.o(.text) for __I$use$fp
    printfa.o(i._printf_core) refers to printfa.o(i._printf_pre_padding) for _printf_pre_padding
    printfa.o(i._printf_core) refers to uldiv.o(.text) for __aeabi_uldivmod
    printfa.o(i._printf_core) refers to printfa.o(i._printf_post_padding) for _printf_post_padding
    printfa.o(i._printf_core) refers to printfa.o(i._fp_digits) for _fp_digits
    printfa.o(i._printf_core) refers to uidiv.o(.text) for __aeabi_uidivmod
    printfa.o(i._printf_post_padding) refers (Special) to iusefp.o(.text) for __I$use$fp
    printfa.o(i._printf_pre_padding) refers (Special) to iusefp.o(.text) for __I$use$fp
    printfa.o(i._snputc) refers (Special) to iusefp.o(.text) for __I$use$fp
    printfa.o(i._sputc) refers (Special) to iusefp.o(.text) for __I$use$fp
    entry4.o(.ARM.Collect$$$$00000003) refers to entry4.o(.ARM.Collect$$$$00002714) for __lit__00000000
    entry4.o(__vectab_stack_and_reset_area) refers to entry.o(.ARM.Collect$$$$00000000) for __main
    entry5.o(.ARM.Collect$$$$00000004) refers to init.o(.text) for __scatterload
    entry7.o(.ARM.Collect$$$$00000007) refers to tasks_usbcli.o(i.main) for main
    uldiv.o(.text) refers to llushr.o(.text) for __aeabi_llsr
    uldiv.o(.text) refers to llshl.o(.text) for __aeabi_llsl
    dadd.o(.text) refers to llshl.o(.text) for __aeabi_llsl
    dadd.o(.text) refers to llsshr.o(.text) for __aeabi_lasr
    dadd.o(.text) refers to depilogue.o(.text) for _double_epilogue
    dmul.o(.text) refers to depilogue.o(.text) for _double_epilogue
    ddiv.o(.text) refers to depilogue.o(.text) for _double_round
    dfixul.o(.text) refers to llushr.o(.text) for __aeabi_llsr
    dfixul.o(.text) refers to llshl.o(.text) for __aeabi_llsl
    init.o(.text) refers to entry5.o(.ARM.Collect$$$$00000004) for __main_after_scatterload
    depilogue.o(.text) refers to llshl.o(.text) for __aeabi_llsl
    depilogue.o(.text) refers to llushr.o(.text) for __aeabi_llsr


==============================================================================

Removing Unused input sections from the image.

    Removing int_is.o(i.BSP_IntClr), (2 bytes).
    Removing int_is.o(i.BSP_IntDis), (20 bytes).
    Removing int_is.o(i.BSP_IntEn), (20 bytes).
    Removing int_is.o(i.BSP_IntPrioSet), (36 bytes).
    Removing usb_pwr.o(i.PowerOff), (44 bytes).
    Removing usb_pwr.o(i.Resume), (192 bytes).
    Removing usb_pwr.o(i.Resume_Init), (40 bytes).
    Removing usb_pwr.o(i.Suspend), (48 bytes).
    Removing bsp_isv2.o(i.BSP_Start), (16 bytes).
    Removing bsp_isv2.o(i.Enter_LowPowerMode), (2 bytes).
    Removing bsp_isv2.o(i.ISBoard_485sendMode), (32 bytes).
    Removing bsp_isv2.o(i.ISBoard_reset), (120 bytes).
    Removing bsp_isv2.o(i.Leave_LowPowerMode), (2 bytes).
    Removing bsp_isv2.o(i.enablePWM), (118 bytes).
    Removing bsp_isv2.o(i.fputc), (84 bytes).
    Removing bsp_isv2.o(.data), (8 bytes).
    Removing 1wire.o(i.OWFamilySkipSetup), (40 bytes).
    Removing 1wire.o(i.OWFirst), (56 bytes).
    Removing 1wire.o(i.OWNext), (20 bytes).
    Removing 1wire.o(i.OWScanBusForDevices), (62 bytes).
    Removing 1wire.o(i.OWSearch), (332 bytes).
    Removing 1wire.o(i.OWTargetSetup), (56 bytes).
    Removing 1wire.o(i.OWVerify), (148 bytes).
    Removing 1wire.o(i.docrc8), (32 bytes).
    Removing 1wire.o(.data), (284 bytes).
    Removing common.o(i.MsgLine_recv), (244 bytes).
    Removing common.o(i.Timer_OnTick), (84 bytes).
    Removing common.o(i.Timer_init), (148 bytes).
    Removing common.o(i.Timer_scan), (76 bytes).
    Removing common.o(i.hexchar), (20 bytes).
    Removing common.o(i.is_ascii), (12 bytes).
    Removing common.o(i.ltoa), (72 bytes).
    Removing common.o(i.memcpy32), (288 bytes).
    Removing common.o(i.strchar), (34 bytes).
    Removing common.o(i.trimleft), (22 bytes).
    Removing common.o(.constdata), (17 bytes).
    Removing nrf24l01.o(i.nRF24L01_RxPacket), (68 bytes).
    Removing tasks_usbcli.o(i.App_TaskDelHook), (2 bytes).
    Removing pulses.o(i.IOSend_M7461M), (444 bytes).
    Removing pulses.o(i.IOSend_TC9012F), (592 bytes).
    Removing pulses.o(i.IOSend_uPD6121), (440 bytes).
    Removing pulses.o(i.IRRecv), (318 bytes).
    Removing pulses.o(i.PulseEncode_EV1527), (164 bytes).
    Removing pulses.o(i.PulseEncode_PT2262), (216 bytes).
    Removing pulses.o(i.PulseSend_byProfile), (84 bytes).
    Removing pulses.o(i.PulseSend_byProfileId), (640 bytes).
    Removing pulses.o(i.PulseSend_bySeq), (332 bytes).
    Removing pulses.o(.constdata), (140 bytes).
    Removing pulses.o(.conststring), (46 bytes).
    Removing pulses.o(.data), (16 bytes).
    Removing usb_int.o(i.CTR_HP), (196 bytes).
    Removing usb_regs.o(i.ClearEPDoubleBuff), (36 bytes).
    Removing usb_regs.o(i.ClearEP_CTR_RX), (36 bytes).
    Removing usb_regs.o(i.ClearEP_CTR_TX), (36 bytes).
    Removing usb_regs.o(i.ClearEP_KIND), (36 bytes).
    Removing usb_regs.o(i.FreeUserBuffer), (80 bytes).
    Removing usb_regs.o(i.GetBTABLE), (12 bytes).
    Removing usb_regs.o(i.GetCNTR), (12 bytes).
    Removing usb_regs.o(i.GetDADDR), (12 bytes).
    Removing usb_regs.o(i.GetENDPOINT), (20 bytes).
    Removing usb_regs.o(i.GetEPAddress), (24 bytes).
    Removing usb_regs.o(i.GetEPDblBuf0Addr), (32 bytes).
    Removing usb_regs.o(i.GetEPDblBuf0Count), (36 bytes).
    Removing usb_regs.o(i.GetEPDblBuf1Addr), (36 bytes).
    Removing usb_regs.o(i.GetEPDblBuf1Count), (36 bytes).
    Removing usb_regs.o(i.GetEPDblBufDir), (76 bytes).
    Removing usb_regs.o(i.GetEPRxStatus), (24 bytes).
    Removing usb_regs.o(i.GetEPTxCount), (36 bytes).
    Removing usb_regs.o(i.GetEPTxStatus), (24 bytes).
    Removing usb_regs.o(i.GetEPType), (24 bytes).
    Removing usb_regs.o(i.GetFNR), (12 bytes).
    Removing usb_regs.o(i.GetISTR), (12 bytes).
    Removing usb_regs.o(i.GetRxStallStatus), (36 bytes).
    Removing usb_regs.o(i.GetTxStallStatus), (36 bytes).
    Removing usb_regs.o(i.SetCNTR), (12 bytes).
    Removing usb_regs.o(i.SetDADDR), (12 bytes).
    Removing usb_regs.o(i.SetDouBleBuffEPStall), (60 bytes).
    Removing usb_regs.o(i.SetENDPOINT), (16 bytes).
    Removing usb_regs.o(i.SetEPAddress), (36 bytes).
    Removing usb_regs.o(i.SetEPCountRxReg), (48 bytes).
    Removing usb_regs.o(i.SetEPDblBuf0Addr), (32 bytes).
    Removing usb_regs.o(i.SetEPDblBuf0Count), (108 bytes).
    Removing usb_regs.o(i.SetEPDblBuf1Addr), (36 bytes).
    Removing usb_regs.o(i.SetEPDblBuf1Count), (108 bytes).
    Removing usb_regs.o(i.SetEPDblBuffAddr), (64 bytes).
    Removing usb_regs.o(i.SetEPDblBuffCount), (204 bytes).
    Removing usb_regs.o(i.SetEPDoubleBuff), (40 bytes).
    Removing usb_regs.o(i.SetEP_KIND), (40 bytes).
    Removing usb_regs.o(i.SetISTR), (12 bytes).
    Removing usb_regs.o(i.Set_Status_Out), (40 bytes).
    Removing usb_regs.o(i.ToWord), (8 bytes).
    Removing usb_regs.o(i.ToggleDTOG_RX), (40 bytes).
    Removing usb_regs.o(i.ToggleDTOG_TX), (40 bytes).
    Removing misc.o(i.NVIC_SystemLPConfig), (44 bytes).
    Removing misc.o(i.SysTick_CLKSourceConfig), (40 bytes).
    Removing stm32f10x_adc.o(i.ADC_AnalogWatchdogCmd), (20 bytes).
    Removing stm32f10x_adc.o(i.ADC_AnalogWatchdogSingleChannelConfig), (16 bytes).
    Removing stm32f10x_adc.o(i.ADC_AnalogWatchdogThresholdsConfig), (6 bytes).
    Removing stm32f10x_adc.o(i.ADC_AutoInjectedConvCmd), (22 bytes).
    Removing stm32f10x_adc.o(i.ADC_ClearFlag), (6 bytes).
    Removing stm32f10x_adc.o(i.ADC_ClearITPendingBit), (10 bytes).
    Removing stm32f10x_adc.o(i.ADC_DeInit), (96 bytes).
    Removing stm32f10x_adc.o(i.ADC_DiscModeChannelCountConfig), (24 bytes).
    Removing stm32f10x_adc.o(i.ADC_DiscModeCmd), (22 bytes).
    Removing stm32f10x_adc.o(i.ADC_ExternalTrigConvCmd), (22 bytes).
    Removing stm32f10x_adc.o(i.ADC_ExternalTrigInjectedConvCmd), (22 bytes).
    Removing stm32f10x_adc.o(i.ADC_ExternalTrigInjectedConvConfig), (16 bytes).
    Removing stm32f10x_adc.o(i.ADC_GetConversionValue), (8 bytes).
    Removing stm32f10x_adc.o(i.ADC_GetDualModeConversionValue), (12 bytes).
    Removing stm32f10x_adc.o(i.ADC_GetFlagStatus), (18 bytes).
    Removing stm32f10x_adc.o(i.ADC_GetITStatus), (36 bytes).
    Removing stm32f10x_adc.o(i.ADC_GetInjectedConversionValue), (10 bytes).
    Removing stm32f10x_adc.o(i.ADC_GetSoftwareStartConvStatus), (20 bytes).
    Removing stm32f10x_adc.o(i.ADC_GetSoftwareStartInjectedConvCmdStatus), (20 bytes).
    Removing stm32f10x_adc.o(i.ADC_ITConfig), (24 bytes).
    Removing stm32f10x_adc.o(i.ADC_InjectedChannelConfig), (130 bytes).
    Removing stm32f10x_adc.o(i.ADC_InjectedDiscModeCmd), (22 bytes).
    Removing stm32f10x_adc.o(i.ADC_InjectedSequencerLengthConfig), (24 bytes).
    Removing stm32f10x_adc.o(i.ADC_SetInjectedOffset), (4 bytes).
    Removing stm32f10x_adc.o(i.ADC_SoftwareStartConvCmd), (22 bytes).
    Removing stm32f10x_adc.o(i.ADC_SoftwareStartInjectedConvCmd), (22 bytes).
    Removing stm32f10x_adc.o(i.ADC_StructInit), (18 bytes).
    Removing stm32f10x_bkp.o(i.BKP_ClearFlag), (24 bytes).
    Removing stm32f10x_bkp.o(i.BKP_ClearITPendingBit), (24 bytes).
    Removing stm32f10x_bkp.o(i.BKP_GetFlagStatus), (12 bytes).
    Removing stm32f10x_bkp.o(i.BKP_GetITStatus), (12 bytes).
    Removing stm32f10x_bkp.o(i.BKP_ITConfig), (12 bytes).
    Removing stm32f10x_bkp.o(i.BKP_RTCOutputConfig), (36 bytes).
    Removing stm32f10x_bkp.o(i.BKP_SetRTCCalibrationValue), (36 bytes).
    Removing stm32f10x_bkp.o(i.BKP_TamperPinCmd), (12 bytes).
    Removing stm32f10x_bkp.o(i.BKP_TamperPinLevelConfig), (12 bytes).
    Removing stm32f10x_can.o(i.CAN_CancelTransmit), (48 bytes).
    Removing stm32f10x_can.o(i.CAN_ClearFlag), (8 bytes).
    Removing stm32f10x_can.o(i.CAN_ClearITPendingBit), (166 bytes).
    Removing stm32f10x_can.o(i.CAN_DBGFreeze), (22 bytes).
    Removing stm32f10x_can.o(i.CAN_DeInit), (40 bytes).
    Removing stm32f10x_can.o(i.CAN_FIFORelease), (14 bytes).
    Removing stm32f10x_can.o(i.CAN_FilterInit), (280 bytes).
    Removing stm32f10x_can.o(i.CAN_GetFlagStatus), (18 bytes).
    Removing stm32f10x_can.o(i.CAN_GetITStatus), (238 bytes).
    Removing stm32f10x_can.o(i.CAN_ITConfig), (18 bytes).
    Removing stm32f10x_can.o(i.CAN_Init), (284 bytes).
    Removing stm32f10x_can.o(i.CAN_MessagePending), (30 bytes).
    Removing stm32f10x_can.o(i.CAN_Receive), (234 bytes).
    Removing stm32f10x_can.o(i.CAN_Sleep), (30 bytes).
    Removing stm32f10x_can.o(i.CAN_StructInit), (32 bytes).
    Removing stm32f10x_can.o(i.CAN_Transmit), (294 bytes).
    Removing stm32f10x_can.o(i.CAN_TransmitStatus), (140 bytes).
    Removing stm32f10x_can.o(i.CAN_WakeUp), (48 bytes).
    Removing stm32f10x_can.o(i.CheckITStatus), (16 bytes).
    Removing stm32f10x_crc.o(i.CRC_CalcBlockCRC), (36 bytes).
    Removing stm32f10x_crc.o(i.CRC_CalcCRC), (16 bytes).
    Removing stm32f10x_crc.o(i.CRC_GetCRC), (12 bytes).
    Removing stm32f10x_crc.o(i.CRC_GetIDRegister), (12 bytes).
    Removing stm32f10x_crc.o(i.CRC_ResetDR), (12 bytes).
    Removing stm32f10x_crc.o(i.CRC_SetIDRegister), (12 bytes).
    Removing stm32f10x_dac.o(i.DAC_Cmd), (60 bytes).
    Removing stm32f10x_dac.o(i.DAC_DMACmd), (60 bytes).
    Removing stm32f10x_dac.o(i.DAC_DeInit), (22 bytes).
    Removing stm32f10x_dac.o(i.DAC_DualSoftwareTriggerCmd), (44 bytes).
    Removing stm32f10x_dac.o(i.DAC_GetDataOutputValue), (20 bytes).
    Removing stm32f10x_dac.o(i.DAC_Init), (68 bytes).
    Removing stm32f10x_dac.o(i.DAC_SetChannel1Data), (16 bytes).
    Removing stm32f10x_dac.o(i.DAC_SetChannel2Data), (16 bytes).
    Removing stm32f10x_dac.o(i.DAC_SetDualChannelData), (32 bytes).
    Removing stm32f10x_dac.o(i.DAC_SoftwareTriggerCmd), (68 bytes).
    Removing stm32f10x_dac.o(i.DAC_StructInit), (12 bytes).
    Removing stm32f10x_dac.o(i.DAC_WaveGenerationCmd), (52 bytes).
    Removing stm32f10x_dbgmcu.o(i.DBGMCU_Config), (32 bytes).
    Removing stm32f10x_dbgmcu.o(i.DBGMCU_GetDEVID), (16 bytes).
    Removing stm32f10x_dbgmcu.o(i.DBGMCU_GetREVID), (12 bytes).
    Removing stm32f10x_dma.o(i.DMA_ClearFlag), (28 bytes).
    Removing stm32f10x_dma.o(i.DMA_GetCurrDataCounter), (8 bytes).
    Removing stm32f10x_dma.o(i.DMA_GetFlagStatus), (44 bytes).
    Removing stm32f10x_dma.o(i.DMA_StructInit), (26 bytes).
    Removing stm32f10x_exti.o(i.EXTI_ClearFlag), (12 bytes).
    Removing stm32f10x_exti.o(i.EXTI_GetFlagStatus), (24 bytes).
    Removing stm32f10x_flash.o(i.FLASH_ClearFlag), (12 bytes).
    Removing stm32f10x_flash.o(i.FLASH_EnableWriteProtection), (204 bytes).
    Removing stm32f10x_flash.o(i.FLASH_EraseAllPages), (76 bytes).
    Removing stm32f10x_flash.o(i.FLASH_EraseOptionBytes), (160 bytes).
    Removing stm32f10x_flash.o(i.FLASH_ErasePage), (80 bytes).
    Removing stm32f10x_flash.o(i.FLASH_GetFlagStatus), (48 bytes).
    Removing stm32f10x_flash.o(i.FLASH_GetPrefetchBufferStatus), (24 bytes).
    Removing stm32f10x_flash.o(i.FLASH_GetReadOutProtectionStatus), (24 bytes).
    Removing stm32f10x_flash.o(i.FLASH_GetStatus), (56 bytes).
    Removing stm32f10x_flash.o(i.FLASH_GetUserOptionByte), (12 bytes).
    Removing stm32f10x_flash.o(i.FLASH_GetWriteProtectionOptionByte), (12 bytes).
    Removing stm32f10x_flash.o(i.FLASH_HalfCycleAccessCmd), (28 bytes).
    Removing stm32f10x_flash.o(i.FLASH_ITConfig), (32 bytes).
    Removing stm32f10x_flash.o(i.FLASH_Lock), (20 bytes).
    Removing stm32f10x_flash.o(i.FLASH_ProgramHalfWord), (68 bytes).
    Removing stm32f10x_flash.o(i.FLASH_ProgramOptionByteData), (84 bytes).
    Removing stm32f10x_flash.o(i.FLASH_ProgramWord), (104 bytes).
    Removing stm32f10x_flash.o(i.FLASH_ReadOutProtection), (172 bytes).
    Removing stm32f10x_flash.o(i.FLASH_Unlock), (24 bytes).
    Removing stm32f10x_flash.o(i.FLASH_UserOptionByteConfig), (112 bytes).
    Removing stm32f10x_flash.o(i.FLASH_WaitForLastOperation), (42 bytes).
    Removing stm32f10x_flash.o(i.delay), (14 bytes).
    Removing stm32f10x_fsmc.o(i.FSMC_ClearFlag), (72 bytes).
    Removing stm32f10x_fsmc.o(i.FSMC_ClearITPendingBit), (72 bytes).
    Removing stm32f10x_fsmc.o(i.FSMC_GetECC), (28 bytes).
    Removing stm32f10x_fsmc.o(i.FSMC_GetFlagStatus), (56 bytes).
    Removing stm32f10x_fsmc.o(i.FSMC_GetITStatus), (68 bytes).
    Removing stm32f10x_fsmc.o(i.FSMC_ITConfig), (136 bytes).
    Removing stm32f10x_fsmc.o(i.FSMC_NANDCmd), (92 bytes).
    Removing stm32f10x_fsmc.o(i.FSMC_NANDDeInit), (72 bytes).
    Removing stm32f10x_fsmc.o(i.FSMC_NANDECCCmd), (92 bytes).
    Removing stm32f10x_fsmc.o(i.FSMC_NANDInit), (140 bytes).
    Removing stm32f10x_fsmc.o(i.FSMC_NANDStructInit), (54 bytes).
    Removing stm32f10x_fsmc.o(i.FSMC_NORSRAMCmd), (52 bytes).
    Removing stm32f10x_fsmc.o(i.FSMC_NORSRAMDeInit), (56 bytes).
    Removing stm32f10x_fsmc.o(i.FSMC_NORSRAMInit), (220 bytes).
    Removing stm32f10x_fsmc.o(i.FSMC_NORSRAMStructInit), (112 bytes).
    Removing stm32f10x_fsmc.o(i.FSMC_PCCARDCmd), (48 bytes).
    Removing stm32f10x_fsmc.o(i.FSMC_PCCARDDeInit), (48 bytes).
    Removing stm32f10x_fsmc.o(i.FSMC_PCCARDInit), (136 bytes).
    Removing stm32f10x_fsmc.o(i.FSMC_PCCARDStructInit), (60 bytes).
    Removing stm32f10x_gpio.o(i.GPIO_AFIODeInit), (20 bytes).
    Removing stm32f10x_gpio.o(i.GPIO_DeInit), (196 bytes).
    Removing stm32f10x_gpio.o(i.GPIO_EventOutputCmd), (12 bytes).
    Removing stm32f10x_gpio.o(i.GPIO_EventOutputConfig), (32 bytes).
    Removing stm32f10x_gpio.o(i.GPIO_PinLockConfig), (18 bytes).
    Removing stm32f10x_gpio.o(i.GPIO_PinRemapConfig), (112 bytes).
    Removing stm32f10x_gpio.o(i.GPIO_ReadInputData), (8 bytes).
    Removing stm32f10x_gpio.o(i.GPIO_ReadOutputData), (8 bytes).
    Removing stm32f10x_gpio.o(i.GPIO_ReadOutputDataBit), (18 bytes).
    Removing stm32f10x_gpio.o(i.GPIO_StructInit), (16 bytes).
    Removing stm32f10x_gpio.o(i.GPIO_Write), (4 bytes).
    Removing stm32f10x_i2c.o(i.I2C_ARPCmd), (24 bytes).
    Removing stm32f10x_i2c.o(i.I2C_AcknowledgeConfig), (24 bytes).
    Removing stm32f10x_i2c.o(i.I2C_CalculatePEC), (24 bytes).
    Removing stm32f10x_i2c.o(i.I2C_CheckEvent), (38 bytes).
    Removing stm32f10x_i2c.o(i.I2C_ClearFlag), (12 bytes).
    Removing stm32f10x_i2c.o(i.I2C_ClearITPendingBit), (12 bytes).
    Removing stm32f10x_i2c.o(i.I2C_Cmd), (24 bytes).
    Removing stm32f10x_i2c.o(i.I2C_DMACmd), (24 bytes).
    Removing stm32f10x_i2c.o(i.I2C_DMALastTransferCmd), (24 bytes).
    Removing stm32f10x_i2c.o(i.I2C_DeInit), (68 bytes).
    Removing stm32f10x_i2c.o(i.I2C_DualAddressCmd), (24 bytes).
    Removing stm32f10x_i2c.o(i.I2C_FastModeDutyCycleConfig), (28 bytes).
    Removing stm32f10x_i2c.o(i.I2C_GeneralCallCmd), (24 bytes).
    Removing stm32f10x_i2c.o(i.I2C_GenerateSTART), (24 bytes).
    Removing stm32f10x_i2c.o(i.I2C_GenerateSTOP), (24 bytes).
    Removing stm32f10x_i2c.o(i.I2C_GetFlagStatus), (42 bytes).
    Removing stm32f10x_i2c.o(i.I2C_GetITStatus), (38 bytes).
    Removing stm32f10x_i2c.o(i.I2C_GetLastEvent), (26 bytes).
    Removing stm32f10x_i2c.o(i.I2C_GetPEC), (8 bytes).
    Removing stm32f10x_i2c.o(i.I2C_ITConfig), (24 bytes).
    Removing stm32f10x_i2c.o(i.I2C_Init), (236 bytes).
    Removing stm32f10x_i2c.o(i.I2C_OwnAddress2Config), (22 bytes).
    Removing stm32f10x_i2c.o(i.I2C_PECPositionConfig), (28 bytes).
    Removing stm32f10x_i2c.o(i.I2C_ReadRegister), (6 bytes).
    Removing stm32f10x_i2c.o(i.I2C_ReceiveData), (8 bytes).
    Removing stm32f10x_i2c.o(i.I2C_SMBusAlertConfig), (28 bytes).
    Removing stm32f10x_i2c.o(i.I2C_Send7bitAddress), (18 bytes).
    Removing stm32f10x_i2c.o(i.I2C_SendData), (4 bytes).
    Removing stm32f10x_i2c.o(i.I2C_SoftwareResetCmd), (22 bytes).
    Removing stm32f10x_i2c.o(i.I2C_StretchClockCmd), (24 bytes).
    Removing stm32f10x_i2c.o(i.I2C_StructInit), (30 bytes).
    Removing stm32f10x_i2c.o(i.I2C_TransmitPEC), (24 bytes).
    Removing stm32f10x_iwdg.o(i.IWDG_Enable), (16 bytes).
    Removing stm32f10x_iwdg.o(i.IWDG_GetFlagStatus), (24 bytes).
    Removing stm32f10x_iwdg.o(i.IWDG_ReloadCounter), (16 bytes).
    Removing stm32f10x_iwdg.o(i.IWDG_SetPrescaler), (12 bytes).
    Removing stm32f10x_iwdg.o(i.IWDG_SetReload), (12 bytes).
    Removing stm32f10x_iwdg.o(i.IWDG_WriteAccessCmd), (12 bytes).
    Removing stm32f10x_pwr.o(i.PWR_ClearFlag), (20 bytes).
    Removing stm32f10x_pwr.o(i.PWR_DeInit), (22 bytes).
    Removing stm32f10x_pwr.o(i.PWR_EnterSTANDBYMode), (56 bytes).
    Removing stm32f10x_pwr.o(i.PWR_EnterSTOPMode), (56 bytes).
    Removing stm32f10x_pwr.o(i.PWR_GetFlagStatus), (24 bytes).
    Removing stm32f10x_pwr.o(i.PWR_PVDCmd), (12 bytes).
    Removing stm32f10x_pwr.o(i.PWR_PVDLevelConfig), (24 bytes).
    Removing stm32f10x_pwr.o(i.PWR_WakeUpPinCmd), (12 bytes).
    Removing stm32f10x_rcc.o(i.RCC_ADCCLKConfig), (24 bytes).
    Removing stm32f10x_rcc.o(i.RCC_APB1PeriphResetCmd), (32 bytes).
    Removing stm32f10x_rcc.o(i.RCC_APB2PeriphResetCmd), (32 bytes).
    Removing stm32f10x_rcc.o(i.RCC_AdjustHSICalibrationValue), (24 bytes).
    Removing stm32f10x_rcc.o(i.RCC_ClearITPendingBit), (12 bytes).
    Removing stm32f10x_rcc.o(i.RCC_ClockSecuritySystemCmd), (12 bytes).
    Removing stm32f10x_rcc.o(i.RCC_GetITStatus), (24 bytes).
    Removing stm32f10x_rcc.o(i.RCC_HSICmd), (12 bytes).
    Removing stm32f10x_rcc.o(i.RCC_ITConfig), (36 bytes).
    Removing stm32f10x_rcc.o(i.RCC_LSICmd), (12 bytes).
    Removing stm32f10x_rcc.o(i.RCC_MCOConfig), (12 bytes).
    Removing stm32f10x_rtc.o(i.RTC_ClearFlag), (32 bytes).
    Removing stm32f10x_rtc.o(i.RTC_ClearITPendingBit), (32 bytes).
    Removing stm32f10x_rtc.o(i.RTC_GetDivider), (36 bytes).
    Removing stm32f10x_rtc.o(i.RTC_GetFlagStatus), (24 bytes).
    Removing stm32f10x_rtc.o(i.RTC_GetITStatus), (44 bytes).
    Removing stm32f10x_rtc.o(i.RTC_SetAlarm), (36 bytes).
    Removing stm32f10x_sdio.o(i.SDIO_CEATAITCmd), (16 bytes).
    Removing stm32f10x_sdio.o(i.SDIO_ClearFlag), (12 bytes).
    Removing stm32f10x_sdio.o(i.SDIO_ClearITPendingBit), (12 bytes).
    Removing stm32f10x_sdio.o(i.SDIO_ClockCmd), (12 bytes).
    Removing stm32f10x_sdio.o(i.SDIO_CmdStructInit), (14 bytes).
    Removing stm32f10x_sdio.o(i.SDIO_CommandCompletionCmd), (12 bytes).
    Removing stm32f10x_sdio.o(i.SDIO_DMACmd), (12 bytes).
    Removing stm32f10x_sdio.o(i.SDIO_DataConfig), (48 bytes).
    Removing stm32f10x_sdio.o(i.SDIO_DataStructInit), (20 bytes).
    Removing stm32f10x_sdio.o(i.SDIO_DeInit), (36 bytes).
    Removing stm32f10x_sdio.o(i.SDIO_GetCommandResponse), (12 bytes).
    Removing stm32f10x_sdio.o(i.SDIO_GetDataCounter), (12 bytes).
    Removing stm32f10x_sdio.o(i.SDIO_GetFIFOCount), (12 bytes).
    Removing stm32f10x_sdio.o(i.SDIO_GetFlagStatus), (24 bytes).
    Removing stm32f10x_sdio.o(i.SDIO_GetITStatus), (24 bytes).
    Removing stm32f10x_sdio.o(i.SDIO_GetPowerState), (16 bytes).
    Removing stm32f10x_sdio.o(i.SDIO_GetResponse), (16 bytes).
    Removing stm32f10x_sdio.o(i.SDIO_ITConfig), (32 bytes).
    Removing stm32f10x_sdio.o(i.SDIO_Init), (48 bytes).
    Removing stm32f10x_sdio.o(i.SDIO_ReadData), (12 bytes).
    Removing stm32f10x_sdio.o(i.SDIO_SendCEATACmd), (12 bytes).
    Removing stm32f10x_sdio.o(i.SDIO_SendCommand), (44 bytes).
    Removing stm32f10x_sdio.o(i.SDIO_SendSDIOSuspendCmd), (12 bytes).
    Removing stm32f10x_sdio.o(i.SDIO_SetPowerState), (28 bytes).
    Removing stm32f10x_sdio.o(i.SDIO_SetSDIOOperation), (12 bytes).
    Removing stm32f10x_sdio.o(i.SDIO_SetSDIOReadWaitMode), (12 bytes).
    Removing stm32f10x_sdio.o(i.SDIO_StartSDIOReadWait), (12 bytes).
    Removing stm32f10x_sdio.o(i.SDIO_StopSDIOReadWait), (12 bytes).
    Removing stm32f10x_sdio.o(i.SDIO_StructInit), (16 bytes).
    Removing stm32f10x_sdio.o(i.SDIO_WriteData), (12 bytes).
    Removing stm32f10x_spi.o(i.I2S_Cmd), (24 bytes).
    Removing stm32f10x_spi.o(i.I2S_Init), (206 bytes).
    Removing stm32f10x_spi.o(i.I2S_StructInit), (20 bytes).
    Removing stm32f10x_spi.o(i.SPI_BiDirectionalLineConfig), (28 bytes).
    Removing stm32f10x_spi.o(i.SPI_CalculateCRC), (24 bytes).
    Removing stm32f10x_spi.o(i.SPI_DataSizeConfig), (18 bytes).
    Removing stm32f10x_spi.o(i.SPI_GetCRC), (16 bytes).
    Removing stm32f10x_spi.o(i.SPI_GetCRCPolynomial), (6 bytes).
    Removing stm32f10x_spi.o(i.SPI_I2S_ClearFlag), (6 bytes).
    Removing stm32f10x_spi.o(i.SPI_I2S_ClearITPendingBit), (20 bytes).
    Removing stm32f10x_spi.o(i.SPI_I2S_DMACmd), (24 bytes).
    Removing stm32f10x_spi.o(i.SPI_I2S_DeInit), (92 bytes).
    Removing stm32f10x_spi.o(i.SPI_I2S_GetITStatus), (52 bytes).
    Removing stm32f10x_spi.o(i.SPI_I2S_ITConfig), (36 bytes).
    Removing stm32f10x_spi.o(i.SPI_NSSInternalSoftwareConfig), (30 bytes).
    Removing stm32f10x_spi.o(i.SPI_SSOutputCmd), (24 bytes).
    Removing stm32f10x_spi.o(i.SPI_StructInit), (24 bytes).
    Removing stm32f10x_spi.o(i.SPI_TransmitCRC), (10 bytes).
    Removing stm32f10x_tim.o(i.TI1_Config), (54 bytes).
    Removing stm32f10x_tim.o(i.TI2_Config), (68 bytes).
    Removing stm32f10x_tim.o(i.TI3_Config), (64 bytes).
    Removing stm32f10x_tim.o(i.TI4_Config), (70 bytes).
    Removing stm32f10x_tim.o(i.TIM_ARRPreloadConfig), (24 bytes).
    Removing stm32f10x_tim.o(i.TIM_BDTRConfig), (32 bytes).
    Removing stm32f10x_tim.o(i.TIM_BDTRStructInit), (18 bytes).
    Removing stm32f10x_tim.o(i.TIM_CCPreloadControl), (24 bytes).
    Removing stm32f10x_tim.o(i.TIM_CCxCmd), (30 bytes).
    Removing stm32f10x_tim.o(i.TIM_CCxNCmd), (30 bytes).
    Removing stm32f10x_tim.o(i.TIM_ClearFlag), (6 bytes).
    Removing stm32f10x_tim.o(i.TIM_ClearITPendingBit), (6 bytes).
    Removing stm32f10x_tim.o(i.TIM_ClearOC1Ref), (18 bytes).
    Removing stm32f10x_tim.o(i.TIM_ClearOC2Ref), (20 bytes).
    Removing stm32f10x_tim.o(i.TIM_ClearOC3Ref), (18 bytes).
    Removing stm32f10x_tim.o(i.TIM_ClearOC4Ref), (20 bytes).
    Removing stm32f10x_tim.o(i.TIM_Cmd), (24 bytes).
    Removing stm32f10x_tim.o(i.TIM_CounterModeConfig), (18 bytes).
    Removing stm32f10x_tim.o(i.TIM_CtrlPWMOutputs), (30 bytes).
    Removing stm32f10x_tim.o(i.TIM_DMACmd), (24 bytes).
    Removing stm32f10x_tim.o(i.TIM_DMAConfig), (10 bytes).
    Removing stm32f10x_tim.o(i.TIM_DeInit), (224 bytes).
    Removing stm32f10x_tim.o(i.TIM_ETRClockMode1Config), (54 bytes).
    Removing stm32f10x_tim.o(i.TIM_ETRClockMode2Config), (32 bytes).
    Removing stm32f10x_tim.o(i.TIM_ETRConfig), (26 bytes).
    Removing stm32f10x_tim.o(i.TIM_EncoderInterfaceConfig), (62 bytes).
    Removing stm32f10x_tim.o(i.TIM_ForcedOC1Config), (18 bytes).
    Removing stm32f10x_tim.o(i.TIM_ForcedOC2Config), (22 bytes).
    Removing stm32f10x_tim.o(i.TIM_ForcedOC3Config), (18 bytes).
    Removing stm32f10x_tim.o(i.TIM_ForcedOC4Config), (22 bytes).
    Removing stm32f10x_tim.o(i.TIM_GenerateEvent), (4 bytes).
    Removing stm32f10x_tim.o(i.TIM_GetCapture1), (6 bytes).
    Removing stm32f10x_tim.o(i.TIM_GetCapture2), (6 bytes).
    Removing stm32f10x_tim.o(i.TIM_GetCapture3), (6 bytes).
    Removing stm32f10x_tim.o(i.TIM_GetCapture4), (8 bytes).
    Removing stm32f10x_tim.o(i.TIM_GetCounter), (6 bytes).
    Removing stm32f10x_tim.o(i.TIM_GetFlagStatus), (18 bytes).
    Removing stm32f10x_tim.o(i.TIM_GetITStatus), (34 bytes).
    Removing stm32f10x_tim.o(i.TIM_GetPrescaler), (6 bytes).
    Removing stm32f10x_tim.o(i.TIM_ICInit), (110 bytes).
    Removing stm32f10x_tim.o(i.TIM_ICStructInit), (18 bytes).
    Removing stm32f10x_tim.o(i.TIM_ITConfig), (24 bytes).
    Removing stm32f10x_tim.o(i.TIM_ITRxExternalClockConfig), (24 bytes).
    Removing stm32f10x_tim.o(i.TIM_InternalClockConfig), (12 bytes).
    Removing stm32f10x_tim.o(i.TIM_OC1FastConfig), (18 bytes).
    Removing stm32f10x_tim.o(i.TIM_OC1Init), (120 bytes).
    Removing stm32f10x_tim.o(i.TIM_OC1NPolarityConfig), (18 bytes).
    Removing stm32f10x_tim.o(i.TIM_OC1PolarityConfig), (18 bytes).
    Removing stm32f10x_tim.o(i.TIM_OC1PreloadConfig), (18 bytes).
    Removing stm32f10x_tim.o(i.TIM_OC2FastConfig), (22 bytes).
    Removing stm32f10x_tim.o(i.TIM_OC2Init), (148 bytes).
    Removing stm32f10x_tim.o(i.TIM_OC2NPolarityConfig), (22 bytes).
    Removing stm32f10x_tim.o(i.TIM_OC2PolarityConfig), (22 bytes).
    Removing stm32f10x_tim.o(i.TIM_OC2PreloadConfig), (22 bytes).
    Removing stm32f10x_tim.o(i.TIM_OC3FastConfig), (18 bytes).
    Removing stm32f10x_tim.o(i.TIM_OC3Init), (144 bytes).
    Removing stm32f10x_tim.o(i.TIM_OC3NPolarityConfig), (22 bytes).
    Removing stm32f10x_tim.o(i.TIM_OC3PolarityConfig), (22 bytes).
    Removing stm32f10x_tim.o(i.TIM_OC3PreloadConfig), (18 bytes).
    Removing stm32f10x_tim.o(i.TIM_OC4FastConfig), (22 bytes).
    Removing stm32f10x_tim.o(i.TIM_OC4Init), (108 bytes).
    Removing stm32f10x_tim.o(i.TIM_OC4PolarityConfig), (22 bytes).
    Removing stm32f10x_tim.o(i.TIM_OC4PreloadConfig), (22 bytes).
    Removing stm32f10x_tim.o(i.TIM_OCStructInit), (20 bytes).
    Removing stm32f10x_tim.o(i.TIM_PWMIConfig), (124 bytes).
    Removing stm32f10x_tim.o(i.TIM_PrescalerConfig), (6 bytes).
    Removing stm32f10x_tim.o(i.TIM_SelectCCDMA), (24 bytes).
    Removing stm32f10x_tim.o(i.TIM_SelectCOM), (24 bytes).
    Removing stm32f10x_tim.o(i.TIM_SelectHallSensor), (24 bytes).
    Removing stm32f10x_tim.o(i.TIM_SelectInputTrigger), (18 bytes).
    Removing stm32f10x_tim.o(i.TIM_SelectMasterSlaveMode), (18 bytes).
    Removing stm32f10x_tim.o(i.TIM_SelectOCxM), (142 bytes).
    Removing stm32f10x_tim.o(i.TIM_SelectOnePulseMode), (18 bytes).
    Removing stm32f10x_tim.o(i.TIM_SelectOutputTrigger), (18 bytes).
    Removing stm32f10x_tim.o(i.TIM_SelectSlaveMode), (18 bytes).
    Removing stm32f10x_tim.o(i.TIM_SetAutoreload), (4 bytes).
    Removing stm32f10x_tim.o(i.TIM_SetClockDivision), (14 bytes).
    Removing stm32f10x_tim.o(i.TIM_SetCompare1), (4 bytes).
    Removing stm32f10x_tim.o(i.TIM_SetCompare2), (4 bytes).
    Removing stm32f10x_tim.o(i.TIM_SetCompare3), (4 bytes).
    Removing stm32f10x_tim.o(i.TIM_SetCompare4), (6 bytes).
    Removing stm32f10x_tim.o(i.TIM_SetCounter), (4 bytes).
    Removing stm32f10x_tim.o(i.TIM_SetIC1Prescaler), (18 bytes).
    Removing stm32f10x_tim.o(i.TIM_SetIC2Prescaler), (22 bytes).
    Removing stm32f10x_tim.o(i.TIM_SetIC3Prescaler), (18 bytes).
    Removing stm32f10x_tim.o(i.TIM_SetIC4Prescaler), (22 bytes).
    Removing stm32f10x_tim.o(i.TIM_TIxExternalClockConfig), (62 bytes).
    Removing stm32f10x_tim.o(i.TIM_TimeBaseInit), (60 bytes).
    Removing stm32f10x_tim.o(i.TIM_TimeBaseStructInit), (18 bytes).
    Removing stm32f10x_tim.o(i.TIM_UpdateDisableConfig), (24 bytes).
    Removing stm32f10x_tim.o(i.TIM_UpdateRequestConfig), (24 bytes).
    Removing stm32f10x_usart.o(i.USART_ClearFlag), (6 bytes).
    Removing stm32f10x_usart.o(i.USART_ClearITPendingBit), (20 bytes).
    Removing stm32f10x_usart.o(i.USART_ClockStructInit), (12 bytes).
    Removing stm32f10x_usart.o(i.USART_DMACmd), (24 bytes).
    Removing stm32f10x_usart.o(i.USART_DeInit), (156 bytes).
    Removing stm32f10x_usart.o(i.USART_GetFlagStatus), (18 bytes).
    Removing stm32f10x_usart.o(i.USART_GetITStatus), (76 bytes).
    Removing stm32f10x_usart.o(i.USART_HalfDuplexCmd), (24 bytes).
    Removing stm32f10x_usart.o(i.USART_ITConfig), (64 bytes).
    Removing stm32f10x_usart.o(i.USART_IrDACmd), (24 bytes).
    Removing stm32f10x_usart.o(i.USART_IrDAConfig), (18 bytes).
    Removing stm32f10x_usart.o(i.USART_LINBreakDetectLengthConfig), (18 bytes).
    Removing stm32f10x_usart.o(i.USART_LINCmd), (24 bytes).
    Removing stm32f10x_usart.o(i.USART_ReceiveData), (10 bytes).
    Removing stm32f10x_usart.o(i.USART_ReceiverWakeUpCmd), (24 bytes).
    Removing stm32f10x_usart.o(i.USART_SendBreak), (10 bytes).
    Removing stm32f10x_usart.o(i.USART_SendData), (8 bytes).
    Removing stm32f10x_usart.o(i.USART_SetAddress), (18 bytes).
    Removing stm32f10x_usart.o(i.USART_SetGuardTime), (16 bytes).
    Removing stm32f10x_usart.o(i.USART_SetPrescaler), (16 bytes).
    Removing stm32f10x_usart.o(i.USART_SmartCardCmd), (24 bytes).
    Removing stm32f10x_usart.o(i.USART_SmartCardNACKCmd), (24 bytes).
    Removing stm32f10x_usart.o(i.USART_StructInit), (24 bytes).
    Removing stm32f10x_usart.o(i.USART_WakeUpConfig), (18 bytes).
    Removing stm32f10x_wwdg.o(i.WWDG_ClearFlag), (12 bytes).
    Removing stm32f10x_wwdg.o(i.WWDG_DeInit), (22 bytes).
    Removing stm32f10x_wwdg.o(i.WWDG_Enable), (16 bytes).
    Removing stm32f10x_wwdg.o(i.WWDG_EnableIT), (12 bytes).
    Removing stm32f10x_wwdg.o(i.WWDG_GetFlagStatus), (12 bytes).
    Removing stm32f10x_wwdg.o(i.WWDG_SetCounter), (16 bytes).
    Removing stm32f10x_wwdg.o(i.WWDG_SetPrescaler), (32 bytes).
    Removing stm32f10x_wwdg.o(i.WWDG_SetWindowValue), (36 bytes).
    Removing cortexm3_macro.o(.text), (110 bytes).
    Removing cpu_c.o(i.CPU_BitBandClr), (68 bytes).
    Removing cpu_c.o(i.CPU_BitBandSet), (68 bytes).
    Removing cpu_c.o(i.CPU_IntSrcDis), (264 bytes).
    Removing cpu_c.o(i.CPU_IntSrcEn), (264 bytes).
    Removing cpu_c.o(i.CPU_IntSrcPrioGet), (340 bytes).
    Removing cpu_c.o(i.CPU_IntSrcPrioSet), (432 bytes).
    Removing os_core.o(i.OSEventNameGet), (104 bytes).
    Removing os_core.o(i.OSEventNameSet), (124 bytes).
    Removing os_core.o(i.OSEventPendMulti), (600 bytes).
    Removing os_core.o(i.OSIntEnter), (36 bytes).
    Removing os_core.o(i.OSSchedLock), (64 bytes).
    Removing os_core.o(i.OSSchedUnlock), (96 bytes).
    Removing os_core.o(i.OSVersion), (6 bytes).
    Removing os_core.o(i.OS_Dummy), (2 bytes).
    Removing os_core.o(i.OS_EventTaskRdy), (148 bytes).
    Removing os_core.o(i.OS_EventTaskRemove), (42 bytes).
    Removing os_core.o(i.OS_EventTaskRemoveMulti), (60 bytes).
    Removing os_core.o(i.OS_EventTaskWait), (124 bytes).
    Removing os_core.o(i.OS_EventTaskWaitMulti), (148 bytes).
    Removing os_core.o(i.OS_EventWaitListInit), (28 bytes).
    Removing os_core.o(i.OS_MemCopy), (20 bytes).
    Removing os_flag.o(i.OSFlagAccept), (252 bytes).
    Removing os_flag.o(i.OSFlagCreate), (100 bytes).
    Removing os_flag.o(i.OSFlagDel), (232 bytes).
    Removing os_flag.o(i.OSFlagNameGet), (88 bytes).
    Removing os_flag.o(i.OSFlagNameSet), (108 bytes).
    Removing os_flag.o(i.OSFlagPend), (600 bytes).
    Removing os_flag.o(i.OSFlagPendGetFlagsRdy), (32 bytes).
    Removing os_flag.o(i.OSFlagPost), (312 bytes).
    Removing os_flag.o(i.OSFlagQuery), (48 bytes).
    Removing os_flag.o(i.OS_FlagBlock), (164 bytes).
    Removing os_flag.o(i.OS_FlagTaskRdy), (104 bytes).
    Removing os_flag.o(i.OS_FlagUnlink), (36 bytes).
    Removing os_mbox.o(i.OSMboxAccept), (38 bytes).
    Removing os_mbox.o(i.OSMboxCreate), (88 bytes).
    Removing os_mbox.o(i.OSMboxDel), (228 bytes).
    Removing os_mbox.o(i.OSMboxPend), (268 bytes).
    Removing os_mbox.o(i.OSMboxPendAbort), (128 bytes).
    Removing os_mbox.o(i.OSMboxPost), (80 bytes).
    Removing os_mbox.o(i.OSMboxPostOpt), (120 bytes).
    Removing os_mbox.o(i.OSMboxQuery), (76 bytes).
    Removing os_sem.o(i.OSSemAccept), (44 bytes).
    Removing os_sem.o(i.OSSemCreate), (88 bytes).
    Removing os_sem.o(i.OSSemDel), (228 bytes).
    Removing os_sem.o(i.OSSemPend), (248 bytes).
    Removing os_sem.o(i.OSSemPendAbort), (128 bytes).
    Removing os_sem.o(i.OSSemPost), (88 bytes).
    Removing os_sem.o(i.OSSemQuery), (82 bytes).
    Removing os_sem.o(i.OSSemSet), (68 bytes).
    Removing os_task.o(i.OSTaskChangePrio), (416 bytes).
    Removing os_task.o(i.OSTaskDel), (360 bytes).
    Removing os_task.o(i.OSTaskDelReq), (108 bytes).
    Removing os_task.o(i.OSTaskNameGet), (128 bytes).
    Removing os_task.o(i.OSTaskQuery), (92 bytes).
    Removing os_task.o(i.OSTaskResume), (176 bytes).
    Removing os_time.o(i.OSTimeDlyResume), (188 bytes).
    Removing os_cpu_c.o(i.OSTaskDelHook), (12 bytes).
    Removing os_dbg.o(.constdata), (2 bytes).
    Removing lib_mem.o(i.Mem_Clr), (18 bytes).
    Removing lib_mem.o(i.Mem_Cmp), (196 bytes).
    Removing lib_mem.o(i.Mem_Init), (2 bytes).
    Removing lib_mem.o(i.Mem_Set), (110 bytes).
    Removing lib_str.o(i.Str_Cat), (72 bytes).
    Removing lib_str.o(i.Str_Cat_N), (84 bytes).
    Removing lib_str.o(i.Str_Char), (44 bytes).
    Removing lib_str.o(i.Str_Char_Last), (52 bytes).
    Removing lib_str.o(i.Str_Char_N), (60 bytes).
    Removing lib_str.o(i.Str_Cmp), (110 bytes).
    Removing lib_str.o(i.Str_Cmp_N), (140 bytes).
    Removing lib_str.o(i.Str_Copy), (52 bytes).
    Removing lib_str.o(i.Str_Copy_N), (66 bytes).
    Removing lib_str.o(i.Str_Len), (20 bytes).
    Removing lib_str.o(i.Str_Str), (134 bytes).
    Removing lib_mem_a.o(.text), (544 bytes).
    Removing dadd.o(.text), (330 bytes).
    Removing dmul.o(.text), (226 bytes).
    Removing ddiv.o(.text), (222 bytes).
    Removing dfixul.o(.text), (48 bytes).
    Removing cdrcmple.o(.text), (40 bytes).
    Removing depilogue.o(.text), (194 bytes).

544 unused section(s) (total 33577 bytes) removed from the image.

==============================================================================

Image Symbol Table

    Local Symbols

    Symbol Name                              Value     Ov Type        Size  Object(Section)

    ../../../cmprslib/zerorunl2.c            0x00000000   Number         0  __dczerorl2.o ABSOLUTE
    ../../microlib/division.c                0x00000000   Number         0  uidiv.o ABSOLUTE
    ../../microlib/division.c                0x00000000   Number         0  uldiv.o ABSOLUTE
    ../../microlib/fpadd.c                   0x00000000   Number         0  dadd.o ABSOLUTE
    ../../microlib/fpdiv.c                   0x00000000   Number         0  ddiv.o ABSOLUTE
    ../../microlib/fpepilogue.c              0x00000000   Number         0  depilogue.o ABSOLUTE
    ../../microlib/fpfix.c                   0x00000000   Number         0  dfixul.o ABSOLUTE
    ../../microlib/fpmul.c                   0x00000000   Number         0  dmul.o ABSOLUTE
    ../../microlib/init/entry.s              0x00000000   Number         0  entry5.o ABSOLUTE
    ../../microlib/init/entry.s              0x00000000   Number         0  entry7.o ABSOLUTE
    ../../microlib/init/entry.s              0x00000000   Number         0  entry4.o ABSOLUTE
    ../../microlib/init/entry.s              0x00000000   Number         0  entry.o ABSOLUTE
    ../../microlib/longlong.c                0x00000000   Number         0  llsshr.o ABSOLUTE
    ../../microlib/longlong.c                0x00000000   Number         0  llushr.o ABSOLUTE
    ../../microlib/longlong.c                0x00000000   Number         0  llshl.o ABSOLUTE
    ../../microlib/printf/printf.c           0x00000000   Number         0  printf2.o ABSOLUTE
    ../../microlib/printf/printf.c           0x00000000   Number         0  printf0.o ABSOLUTE
    ../../microlib/printf/printf.c           0x00000000   Number         0  printfa.o ABSOLUTE
    ../../microlib/printf/printf.c           0x00000000   Number         0  printf8.o ABSOLUTE
    ../../microlib/printf/printf.c           0x00000000   Number         0  printf7.o ABSOLUTE
    ../../microlib/printf/printf.c           0x00000000   Number         0  printf6.o ABSOLUTE
    ../../microlib/printf/printf.c           0x00000000   Number         0  printf5.o ABSOLUTE
    ../../microlib/printf/printf.c           0x00000000   Number         0  printf4.o ABSOLUTE
    ../../microlib/printf/printf.c           0x00000000   Number         0  printf3.o ABSOLUTE
    ../../microlib/printf/printf.c           0x00000000   Number         0  printf1.o ABSOLUTE
    ../../microlib/printf/printf.c           0x00000000   Number         0  printfb.o ABSOLUTE
    ../../microlib/printf/stubs.s            0x00000000   Number         0  stubs.o ABSOLUTE
    ../../microlib/stdio/streams.c           0x00000000   Number         0  stdout.o ABSOLUTE
    ../../microlib/string/memcmp.c           0x00000000   Number         0  memcmp.o ABSOLUTE
    ../../microlib/string/memset.c           0x00000000   Number         0  memseta.o ABSOLUTE
    ../../microlib/string/strcmp.c           0x00000000   Number         0  strcmp.o ABSOLUTE
    ../../microlib/string/strlen.c           0x00000000   Number         0  strlen.o ABSOLUTE
    ../../microlib/string/strstr.c           0x00000000   Number         0  strstr.o ABSOLUTE
    ../../microlib/stubs.s                   0x00000000   Number         0  iusefp.o ABSOLUTE
    ..\..\..\stm32\FWLib\src\misc.c          0x00000000   Number         0  misc.o ABSOLUTE
    ..\..\..\stm32\FWLib\src\stm32f10x_adc.c 0x00000000   Number         0  stm32f10x_adc.o ABSOLUTE
    ..\..\..\stm32\FWLib\src\stm32f10x_bkp.c 0x00000000   Number         0  stm32f10x_bkp.o ABSOLUTE
    ..\..\..\stm32\FWLib\src\stm32f10x_can.c 0x00000000   Number         0  stm32f10x_can.o ABSOLUTE
    ..\..\..\stm32\FWLib\src\stm32f10x_crc.c 0x00000000   Number         0  stm32f10x_crc.o ABSOLUTE
    ..\..\..\stm32\FWLib\src\stm32f10x_dac.c 0x00000000   Number         0  stm32f10x_dac.o ABSOLUTE
    ..\..\..\stm32\FWLib\src\stm32f10x_dbgmcu.c 0x00000000   Number         0  stm32f10x_dbgmcu.o ABSOLUTE
    ..\..\..\stm32\FWLib\src\stm32f10x_dma.c 0x00000000   Number         0  stm32f10x_dma.o ABSOLUTE
    ..\..\..\stm32\FWLib\src\stm32f10x_exti.c 0x00000000   Number         0  stm32f10x_exti.o ABSOLUTE
    ..\..\..\stm32\FWLib\src\stm32f10x_flash.c 0x00000000   Number         0  stm32f10x_flash.o ABSOLUTE
    ..\..\..\stm32\FWLib\src\stm32f10x_fsmc.c 0x00000000   Number         0  stm32f10x_fsmc.o ABSOLUTE
    ..\..\..\stm32\FWLib\src\stm32f10x_gpio.c 0x00000000   Number         0  stm32f10x_gpio.o ABSOLUTE
    ..\..\..\stm32\FWLib\src\stm32f10x_i2c.c 0x00000000   Number         0  stm32f10x_i2c.o ABSOLUTE
    ..\..\..\stm32\FWLib\src\stm32f10x_iwdg.c 0x00000000   Number         0  stm32f10x_iwdg.o ABSOLUTE
    ..\..\..\stm32\FWLib\src\stm32f10x_pwr.c 0x00000000   Number         0  stm32f10x_pwr.o ABSOLUTE
    ..\..\..\stm32\FWLib\src\stm32f10x_rcc.c 0x00000000   Number         0  stm32f10x_rcc.o ABSOLUTE
    ..\..\..\stm32\FWLib\src\stm32f10x_rtc.c 0x00000000   Number         0  stm32f10x_rtc.o ABSOLUTE
    ..\..\..\stm32\FWLib\src\stm32f10x_sdio.c 0x00000000   Number         0  stm32f10x_sdio.o ABSOLUTE
    ..\..\..\stm32\FWLib\src\stm32f10x_spi.c 0x00000000   Number         0  stm32f10x_spi.o ABSOLUTE
    ..\..\..\stm32\FWLib\src\stm32f10x_tim.c 0x00000000   Number         0  stm32f10x_tim.o ABSOLUTE
    ..\..\..\stm32\FWLib\src\stm32f10x_usart.c 0x00000000   Number         0  stm32f10x_usart.o ABSOLUTE
    ..\..\..\stm32\FWLib\src\stm32f10x_wwdg.c 0x00000000   Number         0  stm32f10x_wwdg.o ABSOLUTE
    ..\..\..\stm32\common\1wire.c            0x00000000   Number         0  1wire.o ABSOLUTE
    ..\..\..\stm32\common\common.c           0x00000000   Number         0  common.o ABSOLUTE
    ..\..\..\stm32\common\cortexm3_macro.s   0x00000000   Number         0  cortexm3_macro.o ABSOLUTE
    ..\..\..\stm32\common\ds18b20.c          0x00000000   Number         0  ds18b20.o ABSOLUTE
    ..\..\..\stm32\common\nrf24l01.c         0x00000000   Number         0  nrf24l01.o ABSOLUTE
    ..\..\..\stm32\common\pulses.c           0x00000000   Number         0  pulses.o ABSOLUTE
    ..\..\..\stm32\usblib\src\usb_core.c     0x00000000   Number         0  usb_core.o ABSOLUTE
    ..\..\..\stm32\usblib\src\usb_init.c     0x00000000   Number         0  usb_init.o ABSOLUTE
    ..\..\..\stm32\usblib\src\usb_int.c      0x00000000   Number         0  usb_int.o ABSOLUTE
    ..\..\..\stm32\usblib\src\usb_mem.c      0x00000000   Number         0  usb_mem.o ABSOLUTE
    ..\..\..\stm32\usblib\src\usb_regs.c     0x00000000   Number         0  usb_regs.o ABSOLUTE
    ..\..\..\uCOS-II\uCOS-II\Ports\os_cpu_a.asm 0x00000000   Number         0  os_cpu_a.o ABSOLUTE
    ..\..\..\uCOS-II\uCOS-II\Ports\os_cpu_c.c 0x00000000   Number         0  os_cpu_c.o ABSOLUTE
    ..\..\..\uCOS-II\uCOS-II\Ports\os_dbg.c  0x00000000   Number         0  os_dbg.o ABSOLUTE
    ..\..\..\uCOS-II\uCOS-II\Source\os_core.c 0x00000000   Number         0  os_core.o ABSOLUTE
    ..\..\..\uCOS-II\uCOS-II\Source\os_flag.c 0x00000000   Number         0  os_flag.o ABSOLUTE
    ..\..\..\uCOS-II\uCOS-II\Source\os_mbox.c 0x00000000   Number         0  os_mbox.o ABSOLUTE
    ..\..\..\uCOS-II\uCOS-II\Source\os_mem.c 0x00000000   Number         0  os_mem.o ABSOLUTE
    ..\..\..\uCOS-II\uCOS-II\Source\os_mutex.c 0x00000000   Number         0  os_mutex.o ABSOLUTE
    ..\..\..\uCOS-II\uCOS-II\Source\os_q.c   0x00000000   Number         0  os_q.o ABSOLUTE
    ..\..\..\uCOS-II\uCOS-II\Source\os_sem.c 0x00000000   Number         0  os_sem.o ABSOLUTE
    ..\..\..\uCOS-II\uCOS-II\Source\os_task.c 0x00000000   Number         0  os_task.o ABSOLUTE
    ..\..\..\uCOS-II\uCOS-II\Source\os_time.c 0x00000000   Number         0  os_time.o ABSOLUTE
    ..\..\..\uCOS-II\uCOS-II\Source\os_tmr.c 0x00000000   Number         0  os_tmr.o ABSOLUTE
    ..\..\..\uCOS-II\uc-cpu\ARM-Cortex-M3\cpu_a.asm 0x00000000   Number         0  cpu_a.o ABSOLUTE
    ..\..\..\uCOS-II\uc-cpu\ARM-Cortex-M3\cpu_c.c 0x00000000   Number         0  cpu_c.o ABSOLUTE
    ..\..\..\uCOS-II\uc-lib\Ports\lib_mem_a.asm 0x00000000   Number         0  lib_mem_a.o ABSOLUTE
    ..\..\..\uCOS-II\uc-lib\lib_mem.c        0x00000000   Number         0  lib_mem.o ABSOLUTE
    ..\..\..\uCOS-II\uc-lib\lib_str.c        0x00000000   Number         0  lib_str.o ABSOLUTE
    ..\bsp_ISv2.c                            0x00000000   Number         0  bsp_isv2.o ABSOLUTE
    ..\bsp_v1.0\init.s                       0x00000000   Number         0  init.o ABSOLUTE
    ..\int_is.c                              0x00000000   Number         0  int_is.o ABSOLUTE
    ..\vectors.s                             0x00000000   Number         0  vectors.o ABSOLUTE
    cdrcmple.s                               0x00000000   Number         0  cdrcmple.o ABSOLUTE
    dc.s                                     0x00000000   Number         0  dc.o ABSOLUTE
    handlers.s                               0x00000000   Number         0  handlers.o ABSOLUTE
    init.s                                   0x00000000   Number         0  init.o ABSOLUTE
    tasks_usbcli.c                           0x00000000   Number         0  tasks_usbcli.o ABSOLUTE
    usb_desc.c                               0x00000000   Number         0  usb_desc.o ABSOLUTE
    usb_endp.c                               0x00000000   Number         0  usb_endp.o ABSOLUTE
    usb_istr.c                               0x00000000   Number         0  usb_istr.o ABSOLUTE
    usb_prop.c                               0x00000000   Number         0  usb_prop.o ABSOLUTE
    usb_pwr.c                                0x00000000   Number         0  usb_pwr.o ABSOLUTE
    VECT                                     0x08000000   Section      248  vectors.o(VECT)
    App_NMI_ISR                              0x080000ed   Thumb Code     2  vectors.o(VECT)
    App_Fault_ISR                            0x080000ef   Thumb Code     2  vectors.o(VECT)
    App_MemFault_ISR                         0x080000f1   Thumb Code     2  vectors.o(VECT)
    App_BusFault_ISR                         0x080000f3   Thumb Code     2  vectors.o(VECT)
    App_UsageFault_ISR                       0x080000f5   Thumb Code     2  vectors.o(VECT)
    App_Spurious_ISR                         0x080000f7   Thumb Code     2  vectors.o(VECT)
    .ARM.Collect$$$$00000000                 0x080000f8   Section        0  entry.o(.ARM.Collect$$$$00000000)
    .ARM.Collect$$$$00000003                 0x080000f8   Section        4  entry4.o(.ARM.Collect$$$$00000003)
    .ARM.Collect$$$$00000004                 0x080000fc   Section        4  entry5.o(.ARM.Collect$$$$00000004)
    .ARM.Collect$$$$00000007                 0x08000100   Section        8  entry7.o(.ARM.Collect$$$$00000007)
    .ARM.Collect$$$$00002714                 0x08000108   Section        4  entry4.o(.ARM.Collect$$$$00002714)
    __lit__00000000                          0x08000108   Data           4  entry4.o(.ARM.Collect$$$$00002714)
    .text                                    0x0800010c   Section       42  cpu_a.o(.text)
    .text                                    0x08000138   Section      164  os_cpu_a.o(.text)
    .text                                    0x080001dc   Section        0  memseta.o(.text)
    .text                                    0x08000202   Section        0  strstr.o(.text)
    .text                                    0x0800022e   Section        0  strlen.o(.text)
    .text                                    0x0800023e   Section        0  uldiv.o(.text)
    .text                                    0x080002a4   Section       36  init.o(.text)
    .text                                    0x080002c8   Section        0  llshl.o(.text)
    .text                                    0x080002e6   Section        0  llushr.o(.text)
    .text                                    0x08000306   Section        0  __dczerorl2.o(.text)
    INIT                                     0x08000364   Section        8  init.o(INIT)
    i.ADC_Cmd                                0x0800036c   Section        0  stm32f10x_adc.o(i.ADC_Cmd)
    i.ADC_DMACmd                             0x08000382   Section        0  stm32f10x_adc.o(i.ADC_DMACmd)
    i.ADC_GetCalibrationStatus               0x08000398   Section        0  stm32f10x_adc.o(i.ADC_GetCalibrationStatus)
    i.ADC_GetResetCalibrationStatus          0x080003ac   Section        0  stm32f10x_adc.o(i.ADC_GetResetCalibrationStatus)
    i.ADC_Init                               0x080003c0   Section        0  stm32f10x_adc.o(i.ADC_Init)
    i.ADC_RegularChannelConfig               0x08000410   Section        0  stm32f10x_adc.o(i.ADC_RegularChannelConfig)
    i.ADC_ResetCalibration                   0x080004c8   Section        0  stm32f10x_adc.o(i.ADC_ResetCalibration)
    i.ADC_StartCalibration                   0x080004d2   Section        0  stm32f10x_adc.o(i.ADC_StartCalibration)
    i.ADC_TempSensorVrefintCmd               0x080004dc   Section        0  stm32f10x_adc.o(i.ADC_TempSensorVrefintCmd)
    i.App_TCBInitHook                        0x08000508   Section        0  tasks_usbcli.o(i.App_TCBInitHook)
    i.App_TaskCreateHook                     0x0800050a   Section        0  tasks_usbcli.o(i.App_TaskCreateHook)
    i.App_TaskIdleHook                       0x0800050c   Section        0  tasks_usbcli.o(i.App_TaskIdleHook)
    i.App_TaskStatHook                       0x0800050e   Section        0  tasks_usbcli.o(i.App_TaskStatHook)
    i.App_TaskSwHook                         0x08000510   Section        0  tasks_usbcli.o(i.App_TaskSwHook)
    i.BKP_DeInit                             0x08000512   Section        0  stm32f10x_bkp.o(i.BKP_DeInit)
    i.BKP_ReadBackupRegister                 0x08000524   Section        0  stm32f10x_bkp.o(i.BKP_ReadBackupRegister)
    i.BKP_WriteBackupRegister                0x08000534   Section        0  stm32f10x_bkp.o(i.BKP_WriteBackupRegister)
    i.BSP_CPU_ClkFreq                        0x08000544   Section        0  bsp_isv2.o(i.BSP_CPU_ClkFreq)
    i.BSP_Init                               0x08000554   Section        0  bsp_isv2.o(i.BSP_Init)
    i.BSP_IntDisAll                          0x08000578   Section        0  int_is.o(i.BSP_IntDisAll)
    i.BSP_IntHandler                         0x08000580   Section        0  int_is.o(i.BSP_IntHandler)
    BSP_IntHandler                           0x08000581   Thumb Code    46  int_is.o(i.BSP_IntHandler)
    i.BSP_IntHandlerADC1_2                   0x080005b8   Section        0  int_is.o(i.BSP_IntHandlerADC1_2)
    i.BSP_IntHandlerCAN_RX1                  0x080005c2   Section        0  int_is.o(i.BSP_IntHandlerCAN_RX1)
    i.BSP_IntHandlerCAN_SCE                  0x080005cc   Section        0  int_is.o(i.BSP_IntHandlerCAN_SCE)
    i.BSP_IntHandlerDMA1_CH1                 0x080005d6   Section        0  int_is.o(i.BSP_IntHandlerDMA1_CH1)
    i.BSP_IntHandlerDMA1_CH2                 0x080005e0   Section        0  int_is.o(i.BSP_IntHandlerDMA1_CH2)
    i.BSP_IntHandlerDMA1_CH3                 0x080005ea   Section        0  int_is.o(i.BSP_IntHandlerDMA1_CH3)
    i.BSP_IntHandlerDMA1_CH4                 0x080005f4   Section        0  int_is.o(i.BSP_IntHandlerDMA1_CH4)
    i.BSP_IntHandlerDMA1_CH5                 0x080005fe   Section        0  int_is.o(i.BSP_IntHandlerDMA1_CH5)
    i.BSP_IntHandlerDMA1_CH6                 0x08000608   Section        0  int_is.o(i.BSP_IntHandlerDMA1_CH6)
    i.BSP_IntHandlerDMA1_CH7                 0x08000612   Section        0  int_is.o(i.BSP_IntHandlerDMA1_CH7)
    i.BSP_IntHandlerDummy                    0x0800061c   Section        0  int_is.o(i.BSP_IntHandlerDummy)
    BSP_IntHandlerDummy                      0x0800061d   Thumb Code     2  int_is.o(i.BSP_IntHandlerDummy)
    i.BSP_IntHandlerEXTI0                    0x0800061e   Section        0  int_is.o(i.BSP_IntHandlerEXTI0)
    i.BSP_IntHandlerEXTI1                    0x08000628   Section        0  int_is.o(i.BSP_IntHandlerEXTI1)
    i.BSP_IntHandlerEXTI15_10                0x08000632   Section        0  int_is.o(i.BSP_IntHandlerEXTI15_10)
    i.BSP_IntHandlerEXTI2                    0x0800063c   Section        0  int_is.o(i.BSP_IntHandlerEXTI2)
    i.BSP_IntHandlerEXTI3                    0x08000646   Section        0  int_is.o(i.BSP_IntHandlerEXTI3)
    i.BSP_IntHandlerEXTI4                    0x08000650   Section        0  int_is.o(i.BSP_IntHandlerEXTI4)
    i.BSP_IntHandlerEXTI9_5                  0x0800065a   Section        0  int_is.o(i.BSP_IntHandlerEXTI9_5)
    i.BSP_IntHandlerFLASH                    0x08000664   Section        0  int_is.o(i.BSP_IntHandlerFLASH)
    i.BSP_IntHandlerI2C1_ER                  0x0800066e   Section        0  int_is.o(i.BSP_IntHandlerI2C1_ER)
    i.BSP_IntHandlerI2C1_EV                  0x08000678   Section        0  int_is.o(i.BSP_IntHandlerI2C1_EV)
    i.BSP_IntHandlerI2C2_ER                  0x08000682   Section        0  int_is.o(i.BSP_IntHandlerI2C2_ER)
    i.BSP_IntHandlerI2C2_EV                  0x0800068c   Section        0  int_is.o(i.BSP_IntHandlerI2C2_EV)
    i.BSP_IntHandlerPVD                      0x08000696   Section        0  int_is.o(i.BSP_IntHandlerPVD)
    i.BSP_IntHandlerRCC                      0x080006a0   Section        0  int_is.o(i.BSP_IntHandlerRCC)
    i.BSP_IntHandlerRTC                      0x080006aa   Section        0  int_is.o(i.BSP_IntHandlerRTC)
    i.BSP_IntHandlerRTCAlarm                 0x080006b4   Section        0  int_is.o(i.BSP_IntHandlerRTCAlarm)
    i.BSP_IntHandlerSPI1                     0x080006be   Section        0  int_is.o(i.BSP_IntHandlerSPI1)
    i.BSP_IntHandlerSPI2                     0x080006c8   Section        0  int_is.o(i.BSP_IntHandlerSPI2)
    i.BSP_IntHandlerTAMPER                   0x080006d2   Section        0  int_is.o(i.BSP_IntHandlerTAMPER)
    i.BSP_IntHandlerTIM1_BRK                 0x080006dc   Section        0  int_is.o(i.BSP_IntHandlerTIM1_BRK)
    i.BSP_IntHandlerTIM1_CC                  0x080006e6   Section        0  int_is.o(i.BSP_IntHandlerTIM1_CC)
    i.BSP_IntHandlerTIM1_TRG_COM             0x080006f0   Section        0  int_is.o(i.BSP_IntHandlerTIM1_TRG_COM)
    i.BSP_IntHandlerTIM1_UP                  0x080006fa   Section        0  int_is.o(i.BSP_IntHandlerTIM1_UP)
    i.BSP_IntHandlerTIM2                     0x08000704   Section        0  int_is.o(i.BSP_IntHandlerTIM2)
    i.BSP_IntHandlerTIM3                     0x0800070e   Section        0  int_is.o(i.BSP_IntHandlerTIM3)
    i.BSP_IntHandlerTIM4                     0x08000718   Section        0  int_is.o(i.BSP_IntHandlerTIM4)
    i.BSP_IntHandlerUSART1                   0x08000722   Section        0  int_is.o(i.BSP_IntHandlerUSART1)
    i.BSP_IntHandlerUSART2                   0x0800072c   Section        0  int_is.o(i.BSP_IntHandlerUSART2)
    i.BSP_IntHandlerUSART3                   0x08000736   Section        0  int_is.o(i.BSP_IntHandlerUSART3)
    i.BSP_IntHandlerUSBWakeUp                0x08000740   Section        0  int_is.o(i.BSP_IntHandlerUSBWakeUp)
    i.BSP_IntHandlerUSB_HP_CAN_TX            0x0800074a   Section        0  int_is.o(i.BSP_IntHandlerUSB_HP_CAN_TX)
    i.BSP_IntHandlerUSB_LP_CAN_RX0           0x08000754   Section        0  int_is.o(i.BSP_IntHandlerUSB_LP_CAN_RX0)
    i.BSP_IntHandlerWWDG                     0x0800075e   Section        0  int_is.o(i.BSP_IntHandlerWWDG)
    i.BSP_IntInit                            0x08000768   Section        0  int_is.o(i.BSP_IntInit)
    i.BSP_IntVectSet                         0x080007a8   Section        0  int_is.o(i.BSP_IntVectSet)
    i.ByteSwap                               0x080007cc   Section        0  usb_regs.o(i.ByteSwap)
    i.CTR_LP                                 0x080007d8   Section        0  usb_int.o(i.CTR_LP)
    i.ClearDTOG_RX                           0x08000a0c   Section        0  usb_regs.o(i.ClearDTOG_RX)
    i.ClearDTOG_TX                           0x08000a44   Section        0  usb_regs.o(i.ClearDTOG_TX)
    i.Clear_Status_Out                       0x08000a7c   Section        0  usb_regs.o(i.Clear_Status_Out)
    i.DMA_ClearITPendingBit                  0x08000aa0   Section        0  stm32f10x_dma.o(i.DMA_ClearITPendingBit)
    i.DMA_Cmd                                0x08000abc   Section        0  stm32f10x_dma.o(i.DMA_Cmd)
    i.DMA_DeInit                             0x08000ad4   Section        0  stm32f10x_dma.o(i.DMA_DeInit)
    i.DMA_GetITStatus                        0x08000c24   Section        0  stm32f10x_dma.o(i.DMA_GetITStatus)
    i.DMA_ITConfig                           0x08000c50   Section        0  stm32f10x_dma.o(i.DMA_ITConfig)
    i.DMA_Init                               0x08000c62   Section        0  stm32f10x_dma.o(i.DMA_Init)
    i.DS18B20_InitConfiguration              0x08000c9e   Section        0  ds18b20.o(i.DS18B20_InitConfiguration)
    i.DS18B20_convert                        0x08000cac   Section        0  ds18b20.o(i.DS18B20_convert)
    i.DS18B20_read                           0x08000cce   Section        0  ds18b20.o(i.DS18B20_read)
    i.DataStageIn                            0x08000d50   Section        0  usb_core.o(i.DataStageIn)
    DataStageIn                              0x08000d51   Thumb Code   126  usb_core.o(i.DataStageIn)
    i.DataStageOut                           0x08000ddc   Section        0  usb_core.o(i.DataStageOut)
    DataStageOut                             0x08000ddd   Thumb Code   170  usb_core.o(i.DataStageOut)
    i.Data_Setup0                            0x08000e9c   Section        0  usb_core.o(i.Data_Setup0)
    Data_Setup0                              0x08000e9d   Thumb Code   542  usb_core.o(i.Data_Setup0)
    i.EP1_IN_Callback                        0x080010dc   Section        0  usb_endp.o(i.EP1_IN_Callback)
    i.EP3_OUT_Callback                       0x080010e8   Section        0  usb_endp.o(i.EP3_OUT_Callback)
    i.EXTI_ClearITPendingBit                 0x08001114   Section        0  stm32f10x_exti.o(i.EXTI_ClearITPendingBit)
    i.EXTI_DeInit                            0x08001120   Section        0  stm32f10x_exti.o(i.EXTI_DeInit)
    i.EXTI_GenerateSWInterrupt               0x08001154   Section        0  stm32f10x_exti.o(i.EXTI_GenerateSWInterrupt)
    i.EXTI_GetITStatus                       0x0800116c   Section        0  stm32f10x_exti.o(i.EXTI_GetITStatus)
    i.EXTI_Init                              0x08001198   Section        0  stm32f10x_exti.o(i.EXTI_Init)
    i.EXTI_StructInit                        0x08001264   Section        0  stm32f10x_exti.o(i.EXTI_StructInit)
    i.FLASH_PrefetchBufferCmd                0x08001274   Section        0  stm32f10x_flash.o(i.FLASH_PrefetchBufferCmd)
    i.FLASH_SetLatency                       0x08001290   Section        0  stm32f10x_flash.o(i.FLASH_SetLatency)
    i.GPIO_EXTILineConfig                    0x080012a8   Section        0  stm32f10x_gpio.o(i.GPIO_EXTILineConfig)
    i.GPIO_Init                              0x080012e8   Section        0  stm32f10x_gpio.o(i.GPIO_Init)
    i.GPIO_ReadInputDataBit                  0x080013fa   Section        0  stm32f10x_gpio.o(i.GPIO_ReadInputDataBit)
    i.GPIO_ResetBits                         0x0800140c   Section        0  stm32f10x_gpio.o(i.GPIO_ResetBits)
    i.GPIO_SetBits                           0x08001410   Section        0  stm32f10x_gpio.o(i.GPIO_SetBits)
    i.GPIO_WriteBit                          0x08001414   Section        0  stm32f10x_gpio.o(i.GPIO_WriteBit)
    i.GetEPRxAddr                            0x08001420   Section        0  usb_regs.o(i.GetEPRxAddr)
    i.GetEPRxCount                           0x08001444   Section        0  usb_regs.o(i.GetEPRxCount)
    i.GetEPTxAddr                            0x08001468   Section        0  usb_regs.o(i.GetEPTxAddr)
    i.ISBoard_GPIO_Config                    0x08001488   Section        0  bsp_isv2.o(i.ISBoard_GPIO_Config)
    i.ISBoard_NVIC_Config                    0x080017b0   Section        0  bsp_isv2.o(i.ISBoard_NVIC_Config)
    i.ISBoard_RCC_Config                     0x0800181e   Section        0  bsp_isv2.o(i.ISBoard_RCC_Config)
    i.ISBoard_RTC_Init                       0x080018a4   Section        0  bsp_isv2.o(i.ISBoard_RTC_Init)
    i.ISBoard_getTime                        0x08001948   Section        0  bsp_isv2.o(i.ISBoard_getTime)
    i.ISBoard_setDvr                         0x0800198c   Section        0  bsp_isv2.o(i.ISBoard_setDvr)
    i.ISBoard_setLed                         0x080019d0   Section        0  bsp_isv2.o(i.ISBoard_setLed)
    i.ISBoard_updateClock                    0x08001a18   Section        0  bsp_isv2.o(i.ISBoard_updateClock)
    i.ISR_ADC1DMA                            0x08001a4e   Section        0  int_is.o(i.ISR_ADC1DMA)
    i.ISR_USBRX0                             0x08001a60   Section        0  int_is.o(i.ISR_USBRX0)
    i.ISR_nRF_IR                             0x08001a68   Section        0  int_is.o(i.ISR_nRF_IR)
    i.In0_Process                            0x08001abc   Section        0  usb_core.o(i.In0_Process)
    i.InitProcedure                          0x08001b2c   Section        0  tasks_usbcli.o(i.InitProcedure)
    i.NOP_Process                            0x08001b98   Section        0  usb_core.o(i.NOP_Process)
    i.NVIC_Init                              0x08001b9c   Section        0  misc.o(i.NVIC_Init)
    i.NVIC_PriorityGroupConfig               0x08001c20   Section        0  misc.o(i.NVIC_PriorityGroupConfig)
    i.NVIC_SetVectorTable                    0x08001c34   Section        0  misc.o(i.NVIC_SetVectorTable)
    i.NoData_Setup0                          0x08001c48   Section        0  usb_core.o(i.NoData_Setup0)
    NoData_Setup0                            0x08001c49   Thumb Code   304  usb_core.o(i.NoData_Setup0)
    i.OSInit                                 0x08001d8c   Section        0  os_core.o(i.OSInit)
    i.OSInitHookBegin                        0x08001db4   Section        0  os_cpu_c.o(i.OSInitHookBegin)
    i.OSInitHookEnd                          0x08001db6   Section        0  os_cpu_c.o(i.OSInitHookEnd)
    i.OSIntExit                              0x08001db8   Section        0  os_core.o(i.OSIntExit)
    i.OSStart                                0x08001e48   Section        0  os_core.o(i.OSStart)
    i.OSStatInit                             0x08001e90   Section        0  os_core.o(i.OSStatInit)
    i.OSTCBInitHook                          0x08001edc   Section        0  os_cpu_c.o(i.OSTCBInitHook)
    i.OSTaskCreate                           0x08001ee8   Section        0  os_task.o(i.OSTaskCreate)
    i.OSTaskCreateExt                        0x08001f88   Section        0  os_task.o(i.OSTaskCreateExt)
    i.OSTaskCreateHook                       0x08002040   Section        0  os_cpu_c.o(i.OSTaskCreateHook)
    i.OSTaskIdleHook                         0x0800204c   Section        0  os_cpu_c.o(i.OSTaskIdleHook)
    i.OSTaskNameSet                          0x08002054   Section        0  os_task.o(i.OSTaskNameSet)
    i.OSTaskStatHook                         0x080020e4   Section        0  os_cpu_c.o(i.OSTaskStatHook)
    i.OSTaskStkChk                           0x080020ec   Section        0  os_task.o(i.OSTaskStkChk)
    i.OSTaskStkInit                          0x08002178   Section        0  os_cpu_c.o(i.OSTaskStkInit)
    i.OSTaskSuspend                          0x08002214   Section        0  os_task.o(i.OSTaskSuspend)
    i.OSTaskSwHook                           0x080022bc   Section        0  os_cpu_c.o(i.OSTaskSwHook)
    i.OSTimeDly                              0x080022c4   Section        0  os_time.o(i.OSTimeDly)
    i.OSTimeDlyHMSM                          0x08002334   Section        0  os_time.o(i.OSTimeDlyHMSM)
    i.OSTimeGet                              0x080023a4   Section        0  os_time.o(i.OSTimeGet)
    i.OSTimeSet                              0x080023c0   Section        0  os_time.o(i.OSTimeSet)
    i.OSTimeTick                             0x080023dc   Section        0  os_core.o(i.OSTimeTick)
    i.OSTimeTickHook                         0x080024d0   Section        0  os_cpu_c.o(i.OSTimeTickHook)
    i.OS_CPU_SysTickClkFreq                  0x080024d2   Section        0  bsp_isv2.o(i.OS_CPU_SysTickClkFreq)
    i.OS_CPU_SysTickHandler                  0x080024e0   Section        0  os_cpu_c.o(i.OS_CPU_SysTickHandler)
    i.OS_CPU_SysTickInit                     0x08002508   Section        0  os_cpu_c.o(i.OS_CPU_SysTickInit)
    i.OS_FlagInit                            0x08002534   Section        0  os_flag.o(i.OS_FlagInit)
    i.OS_InitEventList                       0x08002580   Section        0  os_core.o(i.OS_InitEventList)
    OS_InitEventList                         0x08002581   Thumb Code    70  os_core.o(i.OS_InitEventList)
    i.OS_InitMisc                            0x080025d0   Section        0  os_core.o(i.OS_InitMisc)
    OS_InitMisc                              0x080025d1   Thumb Code    44  os_core.o(i.OS_InitMisc)
    i.OS_InitRdyList                         0x08002624   Section        0  os_core.o(i.OS_InitRdyList)
    OS_InitRdyList                           0x08002625   Thumb Code    46  os_core.o(i.OS_InitRdyList)
    i.OS_InitTCBList                         0x0800266c   Section        0  os_core.o(i.OS_InitTCBList)
    OS_InitTCBList                           0x0800266d   Thumb Code    86  os_core.o(i.OS_InitTCBList)
    i.OS_InitTaskIdle                        0x080026d4   Section        0  os_core.o(i.OS_InitTaskIdle)
    OS_InitTaskIdle                          0x080026d5   Thumb Code    54  os_core.o(i.OS_InitTaskIdle)
    i.OS_InitTaskStat                        0x08002724   Section        0  os_core.o(i.OS_InitTaskStat)
    OS_InitTaskStat                          0x08002725   Thumb Code    54  os_core.o(i.OS_InitTaskStat)
    i.OS_MemClr                              0x08002774   Section        0  os_core.o(i.OS_MemClr)
    i.OS_Sched                               0x08002788   Section        0  os_core.o(i.OS_Sched)
    i.OS_SchedNew                            0x080027fc   Section        0  os_core.o(i.OS_SchedNew)
    OS_SchedNew                              0x080027fd   Thumb Code    26  os_core.o(i.OS_SchedNew)
    i.OS_StrCopy                             0x08002828   Section        0  os_core.o(i.OS_StrCopy)
    i.OS_StrLen                              0x08002844   Section        0  os_core.o(i.OS_StrLen)
    i.OS_TCBInit                             0x08002858   Section        0  os_core.o(i.OS_TCBInit)
    i.OS_TaskIdle                            0x0800298c   Section        0  os_core.o(i.OS_TaskIdle)
    i.OS_TaskStat                            0x080029b0   Section        0  os_core.o(i.OS_TaskStat)
    i.OS_TaskStatStkChk                      0x08002a38   Section        0  os_core.o(i.OS_TaskStatStkChk)
    i.OS_TaskStkClr                          0x08002a74   Section        0  os_task.o(i.OS_TaskStkClr)
    i.OWPortal_dqH                           0x08002a90   Section        0  bsp_isv2.o(i.OWPortal_dqH)
    i.OWPortal_dqL                           0x08002aa4   Section        0  bsp_isv2.o(i.OWPortal_dqL)
    i.OWPortal_dqV                           0x08002ab8   Section        0  bsp_isv2.o(i.OWPortal_dqV)
    i.OWPortal_readBit                       0x08002acc   Section        0  1wire.o(i.OWPortal_readBit)
    i.OWPortal_reset                         0x08002b10   Section        0  1wire.o(i.OWPortal_reset)
    i.OWPortal_writeBit                      0x08002b74   Section        0  1wire.o(i.OWPortal_writeBit)
    i.OWReadByte                             0x08002ba2   Section        0  1wire.o(i.OWReadByte)
    i.OWWriteByte                            0x08002bc6   Section        0  1wire.o(i.OWWriteByte)
    i.OnMessageReceived                      0x08002be8   Section        0  tasks_usbcli.o(i.OnMessageReceived)
    i.OnWirelessMsg                          0x08002cd8   Section        0  tasks_usbcli.o(i.OnWirelessMsg)
    i.Out0_Process                           0x08002cf0   Section        0  usb_core.o(i.Out0_Process)
    i.PMAToUserBufferCopy                    0x08002d40   Section        0  usb_mem.o(i.PMAToUserBufferCopy)
    i.PWR_BackupAccessCmd                    0x08002d64   Section        0  stm32f10x_pwr.o(i.PWR_BackupAccessCmd)
    i.Post0_Process                          0x08002d70   Section        0  usb_core.o(i.Post0_Process)
    i.PowerOn                                0x08002db8   Section        0  usb_pwr.o(i.PowerOn)
    i.Pulse_capture                          0x08002e08   Section        0  pulses.o(i.Pulse_capture)
    i.Pulse_parseSignals                     0x08002f08   Section        0  pulses.o(i.Pulse_parseSignals)
    i.RCC_AHBPeriphClockCmd                  0x080030f4   Section        0  stm32f10x_rcc.o(i.RCC_AHBPeriphClockCmd)
    i.RCC_APB1PeriphClockCmd                 0x08003114   Section        0  stm32f10x_rcc.o(i.RCC_APB1PeriphClockCmd)
    i.RCC_APB2PeriphClockCmd                 0x08003134   Section        0  stm32f10x_rcc.o(i.RCC_APB2PeriphClockCmd)
    i.RCC_BackupResetCmd                     0x08003154   Section        0  stm32f10x_rcc.o(i.RCC_BackupResetCmd)
    i.RCC_ClearFlag                          0x08003160   Section        0  stm32f10x_rcc.o(i.RCC_ClearFlag)
    i.RCC_DeInit                             0x08003174   Section        0  stm32f10x_rcc.o(i.RCC_DeInit)
    i.RCC_GetClocksFreq                      0x080031c0   Section        0  stm32f10x_rcc.o(i.RCC_GetClocksFreq)
    i.RCC_GetFlagStatus                      0x08003294   Section        0  stm32f10x_rcc.o(i.RCC_GetFlagStatus)
    i.RCC_GetSYSCLKSource                    0x080032d0   Section        0  stm32f10x_rcc.o(i.RCC_GetSYSCLKSource)
    i.RCC_HCLKConfig                         0x080032e0   Section        0  stm32f10x_rcc.o(i.RCC_HCLKConfig)
    i.RCC_HSEConfig                          0x080032f8   Section        0  stm32f10x_rcc.o(i.RCC_HSEConfig)
    i.RCC_LSEConfig                          0x08003344   Section        0  stm32f10x_rcc.o(i.RCC_LSEConfig)
    i.RCC_PCLK1Config                        0x08003378   Section        0  stm32f10x_rcc.o(i.RCC_PCLK1Config)
    i.RCC_PCLK2Config                        0x08003390   Section        0  stm32f10x_rcc.o(i.RCC_PCLK2Config)
    i.RCC_PLLCmd                             0x080033a8   Section        0  stm32f10x_rcc.o(i.RCC_PLLCmd)
    i.RCC_PLLConfig                          0x080033b4   Section        0  stm32f10x_rcc.o(i.RCC_PLLConfig)
    i.RCC_RTCCLKCmd                          0x080033d0   Section        0  stm32f10x_rcc.o(i.RCC_RTCCLKCmd)
    i.RCC_RTCCLKConfig                       0x080033dc   Section        0  stm32f10x_rcc.o(i.RCC_RTCCLKConfig)
    i.RCC_SYSCLKConfig                       0x080033ec   Section        0  stm32f10x_rcc.o(i.RCC_SYSCLKConfig)
    i.RCC_USBCLKConfig                       0x08003404   Section        0  stm32f10x_rcc.o(i.RCC_USBCLKConfig)
    i.RCC_WaitForHSEStartUp                  0x08003410   Section        0  stm32f10x_rcc.o(i.RCC_WaitForHSEStartUp)
    i.RTC_EnterConfigMode                    0x08003440   Section        0  stm32f10x_rtc.o(i.RTC_EnterConfigMode)
    i.RTC_ExitConfigMode                     0x08003458   Section        0  stm32f10x_rtc.o(i.RTC_ExitConfigMode)
    i.RTC_GetCounter                         0x08003474   Section        0  stm32f10x_rtc.o(i.RTC_GetCounter)
    i.RTC_ITConfig                           0x08003490   Section        0  stm32f10x_rtc.o(i.RTC_ITConfig)
    i.RTC_SetCounter                         0x080034c0   Section        0  stm32f10x_rtc.o(i.RTC_SetCounter)
    i.RTC_SetPrescaler                       0x080034e4   Section        0  stm32f10x_rtc.o(i.RTC_SetPrescaler)
    i.RTC_WaitForLastTask                    0x08003508   Section        0  stm32f10x_rtc.o(i.RTC_WaitForLastTask)
    i.RTC_WaitForSynchro                     0x0800351c   Section        0  stm32f10x_rtc.o(i.RTC_WaitForSynchro)
    i.SPI_Cmd                                0x08003544   Section        0  stm32f10x_spi.o(i.SPI_Cmd)
    i.SPI_I2S_GetFlagStatus                  0x0800355c   Section        0  stm32f10x_spi.o(i.SPI_I2S_GetFlagStatus)
    i.SPI_I2S_ReceiveData                    0x0800356e   Section        0  stm32f10x_spi.o(i.SPI_I2S_ReceiveData)
    i.SPI_I2S_SendData                       0x08003574   Section        0  stm32f10x_spi.o(i.SPI_I2S_SendData)
    i.SPI_Init                               0x08003578   Section        0  stm32f10x_spi.o(i.SPI_Init)
    i.SPI_RW                                 0x080035b4   Section        0  nrf24l01.o(i.SPI_RW)
    SPI_RW                                   0x080035b5   Thumb Code    52  nrf24l01.o(i.SPI_RW)
    i.SetBTABLE                              0x080035e8   Section        0  usb_regs.o(i.SetBTABLE)
    i.SetDeviceAddress                       0x080035f8   Section        0  usb_core.o(i.SetDeviceAddress)
    i.SetEPRxAddr                            0x08003644   Section        0  usb_regs.o(i.SetEPRxAddr)
    i.SetEPRxCount                           0x08003668   Section        0  usb_regs.o(i.SetEPRxCount)
    i.SetEPRxStatus                          0x080036b8   Section        0  usb_regs.o(i.SetEPRxStatus)
    i.SetEPRxValid                           0x080036f4   Section        0  usb_regs.o(i.SetEPRxValid)
    i.SetEPTxAddr                            0x08003720   Section        0  usb_regs.o(i.SetEPTxAddr)
    i.SetEPTxCount                           0x08003740   Section        0  usb_regs.o(i.SetEPTxCount)
    i.SetEPTxStatus                          0x08003760   Section        0  usb_regs.o(i.SetEPTxStatus)
    i.SetEPTxValid                           0x0800379c   Section        0  usb_regs.o(i.SetEPTxValid)
    i.SetEPType                              0x080037c8   Section        0  usb_regs.o(i.SetEPType)
    i.Set_USBClock                           0x080037ec   Section        0  bsp_isv2.o(i.Set_USBClock)
    i.Setup0_Process                         0x08003800   Section        0  usb_core.o(i.Setup0_Process)
    i.Standard_ClearFeature                  0x080038b0   Section        0  usb_core.o(i.Standard_ClearFeature)
    i.Standard_GetConfiguration              0x08003a10   Section        0  usb_core.o(i.Standard_GetConfiguration)
    i.Standard_GetDescriptorData             0x08003a3c   Section        0  usb_core.o(i.Standard_GetDescriptorData)
    i.Standard_GetInterface                  0x08003a60   Section        0  usb_core.o(i.Standard_GetInterface)
    i.Standard_GetStatus                     0x08003a8c   Section        0  usb_core.o(i.Standard_GetStatus)
    i.Standard_SetConfiguration              0x08003b7c   Section        0  usb_core.o(i.Standard_SetConfiguration)
    i.Standard_SetDeviceFeature              0x08003bc4   Section        0  usb_core.o(i.Standard_SetDeviceFeature)
    i.Standard_SetEndPointFeature            0x08003bec   Section        0  usb_core.o(i.Standard_SetEndPointFeature)
    i.Standard_SetInterface                  0x08003cb0   Section        0  usb_core.o(i.Standard_SetInterface)
    i.Task_LocalStatus                       0x08003d1c   Section        0  tasks_usbcli.o(i.Task_LocalStatus)
    Task_LocalStatus                         0x08003d1d   Thumb Code   458  tasks_usbcli.o(i.Task_LocalStatus)
    i.Task_MsgProc                           0x08003f88   Section        0  tasks_usbcli.o(i.Task_MsgProc)
    Task_MsgProc                             0x08003f89   Thumb Code   296  tasks_usbcli.o(i.Task_MsgProc)
    i.Task_UsbRecv                           0x080040e0   Section        0  tasks_usbcli.o(i.Task_UsbRecv)
    Task_UsbRecv                             0x080040e1   Thumb Code    98  tasks_usbcli.o(i.Task_UsbRecv)
    i.Timer_isStepping                       0x0800415c   Section        0  common.o(i.Timer_isStepping)
    i.Timer_start                            0x0800418c   Section        0  common.o(i.Timer_start)
    i.Timer_stop                             0x080041d4   Section        0  common.o(i.Timer_stop)
    i.USART_ClockInit                        0x08004218   Section        0  stm32f10x_usart.o(i.USART_ClockInit)
    i.USART_Cmd                              0x0800423a   Section        0  stm32f10x_usart.o(i.USART_Cmd)
    i.USART_Init                             0x08004254   Section        0  stm32f10x_usart.o(i.USART_Init)
    i.USART_open                             0x080042f0   Section        0  bsp_isv2.o(i.USART_open)
    i.USB_Cable_Config                       0x0800434a   Section        0  bsp_isv2.o(i.USB_Cable_Config)
    i.USB_Init                               0x08004360   Section        0  usb_init.o(i.USB_Init)
    i.USB_Istr                               0x0800439c   Section        0  usb_istr.o(i.USB_Istr)
    i.UserToPMABufferCopy                    0x08004414   Section        0  usb_mem.o(i.UserToPMABufferCopy)
    i.Virtual_Com_Port_Data_Setup            0x0800444c   Section        0  usb_prop.o(i.Virtual_Com_Port_Data_Setup)
    i.Virtual_Com_Port_GetConfigDescriptor   0x080044b0   Section        0  usb_prop.o(i.Virtual_Com_Port_GetConfigDescriptor)
    i.Virtual_Com_Port_GetDeviceDescriptor   0x080044c4   Section        0  usb_prop.o(i.Virtual_Com_Port_GetDeviceDescriptor)
    i.Virtual_Com_Port_GetLineCoding         0x080044d8   Section        0  usb_prop.o(i.Virtual_Com_Port_GetLineCoding)
    i.Virtual_Com_Port_GetStringDescriptor   0x080044f4   Section        0  usb_prop.o(i.Virtual_Com_Port_GetStringDescriptor)
    i.Virtual_Com_Port_Get_Interface_Setting 0x08004514   Section        0  usb_prop.o(i.Virtual_Com_Port_Get_Interface_Setting)
    i.Virtual_Com_Port_NoData_Setup          0x0800452c   Section        0  usb_prop.o(i.Virtual_Com_Port_NoData_Setup)
    i.Virtual_Com_Port_Reset                 0x08004554   Section        0  usb_prop.o(i.Virtual_Com_Port_Reset)
    i.Virtual_Com_Port_SetLineCoding         0x08004624   Section        0  usb_prop.o(i.Virtual_Com_Port_SetLineCoding)
    i.Virtual_Com_Port_Status_In             0x08004640   Section        0  usb_prop.o(i.Virtual_Com_Port_Status_In)
    i.Virtual_Com_Port_Status_Out            0x08004654   Section        0  usb_prop.o(i.Virtual_Com_Port_Status_Out)
    i.Virtual_Com_Port_init                  0x08004658   Section        0  usb_prop.o(i.Virtual_Com_Port_init)
    i.__0sprintf$8                           0x080046c0   Section        0  printf8.o(i.__0sprintf$8)
    i.__scatterload_copy                     0x080046e8   Section       14  handlers.o(i.__scatterload_copy)
    i.__scatterload_null                     0x080046f6   Section        2  handlers.o(i.__scatterload_null)
    i.__scatterload_zeroinit                 0x080046f8   Section       14  handlers.o(i.__scatterload_zeroinit)
    i._printf_core                           0x08004708   Section        0  printf8.o(i._printf_core)
    _printf_core                             0x08004709   Thumb Code  1064  printf8.o(i._printf_core)
    i._printf_post_padding                   0x08004b30   Section        0  printf8.o(i._printf_post_padding)
    _printf_post_padding                     0x08004b31   Thumb Code    38  printf8.o(i._printf_post_padding)
    i._printf_pre_padding                    0x08004b56   Section        0  printf8.o(i._printf_pre_padding)
    _printf_pre_padding                      0x08004b57   Thumb Code    46  printf8.o(i._printf_pre_padding)
    i._sputc                                 0x08004b84   Section        0  printf8.o(i._sputc)
    _sputc                                   0x08004b85   Thumb Code    10  printf8.o(i._sputc)
    i.delayXmsec                             0x08004b8e   Section        0  common.o(i.delayXmsec)
    i.delayXusec                             0x08004bb0   Section        0  common.o(i.delayXusec)
    i.hex2int                                0x08004bca   Section        0  common.o(i.hex2int)
    i.hexchval                               0x08004c08   Section        0  common.o(i.hexchval)
    i.irRecvBit                              0x08004c40   Section        0  bsp_isv2.o(i.irRecvBit)
    i.main                                   0x08004c5c   Section        0  tasks_usbcli.o(i.main)
    i.motionState                            0x08004ca0   Section        0  bsp_isv2.o(i.motionState)
    i.nRF24L01_RW_Reg                        0x08004cbc   Section        0  nrf24l01.o(i.nRF24L01_RW_Reg)
    i.nRF24L01_TxPacket                      0x08004cd0   Section        0  nrf24l01.o(i.nRF24L01_TxPacket)
    i.nRF24L01_config                        0x08004db8   Section        0  nrf24l01.o(i.nRF24L01_config)
    i.nRF24L01_init                          0x08004dda   Section        0  nrf24l01.o(i.nRF24L01_init)
    i.nRF24L01_readBuff                      0x08004f8e   Section        0  nrf24l01.o(i.nRF24L01_readBuff)
    i.nRF24L01_readReg                       0x08004fd0   Section        0  nrf24l01.o(i.nRF24L01_readReg)
    i.nRF24L01_setModeRX                     0x08004fec   Section        0  nrf24l01.o(i.nRF24L01_setModeRX)
    i.nRF24L01_setModeTX                     0x08005024   Section        0  nrf24l01.o(i.nRF24L01_setModeTX)
    i.nRF24L01_writeBuff                     0x080050ac   Section        0  nrf24l01.o(i.nRF24L01_writeBuff)
    i.nRF24L01_writeReg                      0x080050ec   Section        0  nrf24l01.o(i.nRF24L01_writeReg)
    i.processIRQ_nRF24L01                    0x08005100   Section        0  nrf24l01.o(i.processIRQ_nRF24L01)
    i.sendMsgToUsb                           0x080051e0   Section        0  tasks_usbcli.o(i.sendMsgToUsb)
    i.sendTxtMsgToNRF                        0x0800520c   Section        0  tasks_usbcli.o(i.sendTxtMsgToNRF)
    .constdata                               0x08005350   Section      199  usb_desc.o(.constdata)
    .constdata                               0x08005418   Section       56  bsp_isv2.o(.constdata)
    OnBoardLEDs                              0x08005418   Data          32  bsp_isv2.o(.constdata)
    OnBoardDvrs                              0x08005438   Data          16  bsp_isv2.o(.constdata)
    MotionBit                                0x08005448   Data           8  bsp_isv2.o(.constdata)
    .constdata                               0x08005450   Section      256  os_core.o(.constdata)
    .data                                    0x20000000   Section       12  int_is.o(.data)
    .data                                    0x2000000c   Section        8  usb_endp.o(.data)
    .data                                    0x20000014   Section       62  usb_istr.o(.data)
    .data                                    0x20000054   Section      148  usb_prop.o(.data)
    .data                                    0x200000e8   Section        4  usb_pwr.o(.data)
    .data                                    0x200000ec   Section        4  common.o(.data)
    .data                                    0x200000f0   Section        1  nrf24l01.o(.data)
    bTxBusy                                  0x200000f0   Data           1  nrf24l01.o(.data)
    .data                                    0x200000f4   Section       70  tasks_usbcli.o(.data)
    nodeId                                   0x200000f4   Data           4  tasks_usbcli.o(.data)
    buf_i                                    0x20000134   Data           1  tasks_usbcli.o(.data)
    .data                                    0x2000013a   Section        2  usb_core.o(.data)
    .data                                    0x2000013c   Section       20  usb_init.o(.data)
    .data                                    0x20000150   Section        4  usb_int.o(.data)
    .data                                    0x20000154   Section       20  stm32f10x_rcc.o(.data)
    APBAHBPrescTable                         0x20000154   Data          16  stm32f10x_rcc.o(.data)
    ADCPrescTable                            0x20000164   Data           4  stm32f10x_rcc.o(.data)
    .data                                    0x20000168   Section       64  os_core.o(.data)
    .bss                                     0x200001a8   Section      332  int_is.o(.bss)
    BSP_IntVectTbl                           0x200001a8   Data         168  int_is.o(.bss)
    .bss                                     0x200002f4   Section       64  usb_endp.o(.bss)
    .bss                                     0x20000338   Section       16  bsp_isv2.o(.bss)
    .bss                                     0x20000348   Section      202  common.o(.bss)
    .bss                                     0x20000414   Section     1625  tasks_usbcli.o(.bss)
    buf                                      0x20000414   Data          18  tasks_usbcli.o(.bss)
    TaskStack_UsbRecv                        0x20000428   Data         160  tasks_usbcli.o(.bss)
    TaskStack_LocalStatus                    0x200004c8   Data         400  tasks_usbcli.o(.bss)
    TaskStack_MsgProc                        0x20000658   Data         400  tasks_usbcli.o(.bss)
    .bss                                     0x20000a70   Section       28  usb_init.o(.bss)
    .bss                                     0x20000a8c   Section     2716  os_core.o(.bss)

    Global Symbols

    Symbol Name                              Value     Ov Type        Size  Object(Section)

    BuildAttributes$$THM_ISAv4$P$D$K$B$S$PE$A:L22UL41UL21$X:L11$S22US41US21$IEEE1$IW$USESV6$~STKCKD$USESV7$~SHL$OSPACE$ROPI$EBA8$MICROLIB$REQ8$PRES8$EABIv2 0x00000000   Number         0  anon$$obj.o ABSOLUTE
    __ARM_use_no_argv                        0x00000000   Number         0  tasks_usbcli.o ABSOLUTE
    _printf_a                                0x00000000   Number         0  stubs.o ABSOLUTE
    _printf_c                                0x00000000   Number         0  stubs.o ABSOLUTE
    _printf_charcount                        0x00000000   Number         0  stubs.o ABSOLUTE
    _printf_d                                0x00000000   Number         0  stubs.o ABSOLUTE
    _printf_e                                0x00000000   Number         0  stubs.o ABSOLUTE
    _printf_f                                0x00000000   Number         0  stubs.o ABSOLUTE
    _printf_flags                            0x00000000   Number         0  stubs.o ABSOLUTE
    _printf_fp_dec                           0x00000000   Number         0  stubs.o ABSOLUTE
    _printf_fp_hex                           0x00000000   Number         0  stubs.o ABSOLUTE
    _printf_g                                0x00000000   Number         0  stubs.o ABSOLUTE
    _printf_i                                0x00000000   Number         0  stubs.o ABSOLUTE
    _printf_int_dec                          0x00000000   Number         0  stubs.o ABSOLUTE
    _printf_l                                0x00000000   Number         0  stubs.o ABSOLUTE
    _printf_lc                               0x00000000   Number         0  stubs.o ABSOLUTE
    _printf_ll                               0x00000000   Number         0  stubs.o ABSOLUTE
    _printf_lld                              0x00000000   Number         0  stubs.o ABSOLUTE
    _printf_lli                              0x00000000   Number         0  stubs.o ABSOLUTE
    _printf_llo                              0x00000000   Number         0  stubs.o ABSOLUTE
    _printf_llu                              0x00000000   Number         0  stubs.o ABSOLUTE
    _printf_llx                              0x00000000   Number         0  stubs.o ABSOLUTE
    _printf_longlong_dec                     0x00000000   Number         0  stubs.o ABSOLUTE
    _printf_longlong_hex                     0x00000000   Number         0  stubs.o ABSOLUTE
    _printf_longlong_oct                     0x00000000   Number         0  stubs.o ABSOLUTE
    _printf_ls                               0x00000000   Number         0  stubs.o ABSOLUTE
    _printf_mbtowc                           0x00000000   Number         0  stubs.o ABSOLUTE
    _printf_n                                0x00000000   Number         0  stubs.o ABSOLUTE
    _printf_o                                0x00000000   Number         0  stubs.o ABSOLUTE
    _printf_p                                0x00000000   Number         0  stubs.o ABSOLUTE
    _printf_percent                          0x00000000   Number         0  stubs.o ABSOLUTE
    _printf_pre_padding                      0x00000000   Number         0  stubs.o ABSOLUTE
    _printf_return_value                     0x00000000   Number         0  stubs.o ABSOLUTE
    _printf_s                                0x00000000   Number         0  stubs.o ABSOLUTE
    _printf_sizespec                         0x00000000   Number         0  stubs.o ABSOLUTE
    _printf_str                              0x00000000   Number         0  stubs.o ABSOLUTE
    _printf_truncate_signed                  0x00000000   Number         0  stubs.o ABSOLUTE
    _printf_truncate_unsigned                0x00000000   Number         0  stubs.o ABSOLUTE
    _printf_u                                0x00000000   Number         0  stubs.o ABSOLUTE
    _printf_wc                               0x00000000   Number         0  stubs.o ABSOLUTE
    _printf_wctomb                           0x00000000   Number         0  stubs.o ABSOLUTE
    _printf_widthprec                        0x00000000   Number         0  stubs.o ABSOLUTE
    _printf_x                                0x00000000   Number         0  stubs.o ABSOLUTE
    __main                                   0x080000f9   Thumb Code     0  entry.o(.ARM.Collect$$$$00000000)
    _main_stk                                0x080000f9   Thumb Code     0  entry4.o(.ARM.Collect$$$$00000003)
    _main_scatterload                        0x080000fd   Thumb Code     0  entry5.o(.ARM.Collect$$$$00000004)
    __main_after_scatterload                 0x08000101   Thumb Code     0  entry5.o(.ARM.Collect$$$$00000004)
    _main_init                               0x08000101   Thumb Code     0  entry7.o(.ARM.Collect$$$$00000007)
    CPU_IntDis                               0x0800010d   Thumb Code     0  cpu_a.o(.text)
    CPU_IntEn                                0x08000111   Thumb Code     0  cpu_a.o(.text)
    CPU_SR_Save                              0x08000115   Thumb Code     0  cpu_a.o(.text)
    CPU_SR_Restore                           0x0800011d   Thumb Code     0  cpu_a.o(.text)
    CPU_CntLeadZeros                         0x08000123   Thumb Code     0  cpu_a.o(.text)
    CPU_RevBits                              0x08000129   Thumb Code     0  cpu_a.o(.text)
    CPU_WaitForInt                           0x0800012f   Thumb Code     0  cpu_a.o(.text)
    CPU_WaitForExcept                        0x08000133   Thumb Code     0  cpu_a.o(.text)
    OS_CPU_SR_Save                           0x08000139   Thumb Code     0  os_cpu_a.o(.text)
    OS_CPU_SR_Restore                        0x08000141   Thumb Code     0  os_cpu_a.o(.text)
    OSStartHighRdy                           0x08000147   Thumb Code     0  os_cpu_a.o(.text)
    OSCtxSw                                  0x08000167   Thumb Code     0  os_cpu_a.o(.text)
    OSIntCtxSw                               0x08000171   Thumb Code     0  os_cpu_a.o(.text)
    OS_CPU_PendSVHandler                     0x0800017b   Thumb Code     0  os_cpu_a.o(.text)
    __aeabi_memset                           0x080001dd   Thumb Code    14  memseta.o(.text)
    __aeabi_memset4                          0x080001dd   Thumb Code     0  memseta.o(.text)
    __aeabi_memset8                          0x080001dd   Thumb Code     0  memseta.o(.text)
    __aeabi_memclr                           0x080001eb   Thumb Code     4  memseta.o(.text)
    __aeabi_memclr4                          0x080001eb   Thumb Code     0  memseta.o(.text)
    __aeabi_memclr8                          0x080001eb   Thumb Code     0  memseta.o(.text)
    _memset$wrapper                          0x080001ef   Thumb Code    20  memseta.o(.text)
    strstr                                   0x08000203   Thumb Code    44  strstr.o(.text)
    strlen                                   0x0800022f   Thumb Code    16  strlen.o(.text)
    __aeabi_uldivmod                         0x0800023f   Thumb Code   102  uldiv.o(.text)
    __scatterload                            0x080002a5   Thumb Code    28  init.o(.text)
    __scatterload_rt2                        0x080002a5   Thumb Code     0  init.o(.text)
    __aeabi_llsl                             0x080002c9   Thumb Code    30  llshl.o(.text)
    _ll_shift_l                              0x080002c9   Thumb Code     0  llshl.o(.text)
    __aeabi_llsr                             0x080002e7   Thumb Code    32  llushr.o(.text)
    _ll_ushift_r                             0x080002e7   Thumb Code     0  llushr.o(.text)
    __decompress                             0x08000307   Thumb Code     0  __dczerorl2.o(.text)
    __decompress1                            0x08000307   Thumb Code    92  __dczerorl2.o(.text)
    ResetHndlr                               0x08000365   Thumb Code     0  init.o(INIT)
    ADC_Cmd                                  0x0800036d   Thumb Code    22  stm32f10x_adc.o(i.ADC_Cmd)
    ADC_DMACmd                               0x08000383   Thumb Code    22  stm32f10x_adc.o(i.ADC_DMACmd)
    ADC_GetCalibrationStatus                 0x08000399   Thumb Code    20  stm32f10x_adc.o(i.ADC_GetCalibrationStatus)
    ADC_GetResetCalibrationStatus            0x080003ad   Thumb Code    20  stm32f10x_adc.o(i.ADC_GetResetCalibrationStatus)
    ADC_Init                                 0x080003c1   Thumb Code    70  stm32f10x_adc.o(i.ADC_Init)
    ADC_RegularChannelConfig                 0x08000411   Thumb Code   184  stm32f10x_adc.o(i.ADC_RegularChannelConfig)
    ADC_ResetCalibration                     0x080004c9   Thumb Code    10  stm32f10x_adc.o(i.ADC_ResetCalibration)
    ADC_StartCalibration                     0x080004d3   Thumb Code    10  stm32f10x_adc.o(i.ADC_StartCalibration)
    ADC_TempSensorVrefintCmd                 0x080004dd   Thumb Code    34  stm32f10x_adc.o(i.ADC_TempSensorVrefintCmd)
    App_TCBInitHook                          0x08000509   Thumb Code     2  tasks_usbcli.o(i.App_TCBInitHook)
    App_TaskCreateHook                       0x0800050b   Thumb Code     2  tasks_usbcli.o(i.App_TaskCreateHook)
    App_TaskIdleHook                         0x0800050d   Thumb Code     2  tasks_usbcli.o(i.App_TaskIdleHook)
    App_TaskStatHook                         0x0800050f   Thumb Code     2  tasks_usbcli.o(i.App_TaskStatHook)
    App_TaskSwHook                           0x08000511   Thumb Code     2  tasks_usbcli.o(i.App_TaskSwHook)
    BKP_DeInit                               0x08000513   Thumb Code    16  stm32f10x_bkp.o(i.BKP_DeInit)
    BKP_ReadBackupRegister                   0x08000525   Thumb Code    12  stm32f10x_bkp.o(i.BKP_ReadBackupRegister)
    BKP_WriteBackupRegister                  0x08000535   Thumb Code    10  stm32f10x_bkp.o(i.BKP_WriteBackupRegister)
    BSP_CPU_ClkFreq                          0x08000545   Thumb Code    16  bsp_isv2.o(i.BSP_CPU_ClkFreq)
    BSP_Init                                 0x08000555   Thumb Code    30  bsp_isv2.o(i.BSP_Init)
    BSP_IntDisAll                            0x08000579   Thumb Code     8  int_is.o(i.BSP_IntDisAll)
    BSP_IntHandlerADC1_2                     0x080005b9   Thumb Code    10  int_is.o(i.BSP_IntHandlerADC1_2)
    BSP_IntHandlerCAN_RX1                    0x080005c3   Thumb Code    10  int_is.o(i.BSP_IntHandlerCAN_RX1)
    BSP_IntHandlerCAN_SCE                    0x080005cd   Thumb Code    10  int_is.o(i.BSP_IntHandlerCAN_SCE)
    BSP_IntHandlerDMA1_CH1                   0x080005d7   Thumb Code    10  int_is.o(i.BSP_IntHandlerDMA1_CH1)
    BSP_IntHandlerDMA1_CH2                   0x080005e1   Thumb Code    10  int_is.o(i.BSP_IntHandlerDMA1_CH2)
    BSP_IntHandlerDMA1_CH3                   0x080005eb   Thumb Code    10  int_is.o(i.BSP_IntHandlerDMA1_CH3)
    BSP_IntHandlerDMA1_CH4                   0x080005f5   Thumb Code    10  int_is.o(i.BSP_IntHandlerDMA1_CH4)
    BSP_IntHandlerDMA1_CH5                   0x080005ff   Thumb Code    10  int_is.o(i.BSP_IntHandlerDMA1_CH5)
    BSP_IntHandlerDMA1_CH6                   0x08000609   Thumb Code    10  int_is.o(i.BSP_IntHandlerDMA1_CH6)
    BSP_IntHandlerDMA1_CH7                   0x08000613   Thumb Code    10  int_is.o(i.BSP_IntHandlerDMA1_CH7)
    BSP_IntHandlerEXTI0                      0x0800061f   Thumb Code    10  int_is.o(i.BSP_IntHandlerEXTI0)
    BSP_IntHandlerEXTI1                      0x08000629   Thumb Code    10  int_is.o(i.BSP_IntHandlerEXTI1)
    BSP_IntHandlerEXTI15_10                  0x08000633   Thumb Code    10  int_is.o(i.BSP_IntHandlerEXTI15_10)
    BSP_IntHandlerEXTI2                      0x0800063d   Thumb Code    10  int_is.o(i.BSP_IntHandlerEXTI2)
    BSP_IntHandlerEXTI3                      0x08000647   Thumb Code    10  int_is.o(i.BSP_IntHandlerEXTI3)
    BSP_IntHandlerEXTI4                      0x08000651   Thumb Code    10  int_is.o(i.BSP_IntHandlerEXTI4)
    BSP_IntHandlerEXTI9_5                    0x0800065b   Thumb Code    10  int_is.o(i.BSP_IntHandlerEXTI9_5)
    BSP_IntHandlerFLASH                      0x08000665   Thumb Code    10  int_is.o(i.BSP_IntHandlerFLASH)
    BSP_IntHandlerI2C1_ER                    0x0800066f   Thumb Code    10  int_is.o(i.BSP_IntHandlerI2C1_ER)
    BSP_IntHandlerI2C1_EV                    0x08000679   Thumb Code    10  int_is.o(i.BSP_IntHandlerI2C1_EV)
    BSP_IntHandlerI2C2_ER                    0x08000683   Thumb Code    10  int_is.o(i.BSP_IntHandlerI2C2_ER)
    BSP_IntHandlerI2C2_EV                    0x0800068d   Thumb Code    10  int_is.o(i.BSP_IntHandlerI2C2_EV)
    BSP_IntHandlerPVD                        0x08000697   Thumb Code    10  int_is.o(i.BSP_IntHandlerPVD)
    BSP_IntHandlerRCC                        0x080006a1   Thumb Code    10  int_is.o(i.BSP_IntHandlerRCC)
    BSP_IntHandlerRTC                        0x080006ab   Thumb Code    10  int_is.o(i.BSP_IntHandlerRTC)
    BSP_IntHandlerRTCAlarm                   0x080006b5   Thumb Code    10  int_is.o(i.BSP_IntHandlerRTCAlarm)
    BSP_IntHandlerSPI1                       0x080006bf   Thumb Code    10  int_is.o(i.BSP_IntHandlerSPI1)
    BSP_IntHandlerSPI2                       0x080006c9   Thumb Code    10  int_is.o(i.BSP_IntHandlerSPI2)
    BSP_IntHandlerTAMPER                     0x080006d3   Thumb Code    10  int_is.o(i.BSP_IntHandlerTAMPER)
    BSP_IntHandlerTIM1_BRK                   0x080006dd   Thumb Code    10  int_is.o(i.BSP_IntHandlerTIM1_BRK)
    BSP_IntHandlerTIM1_CC                    0x080006e7   Thumb Code    10  int_is.o(i.BSP_IntHandlerTIM1_CC)
    BSP_IntHandlerTIM1_TRG_COM               0x080006f1   Thumb Code    10  int_is.o(i.BSP_IntHandlerTIM1_TRG_COM)
    BSP_IntHandlerTIM1_UP                    0x080006fb   Thumb Code    10  int_is.o(i.BSP_IntHandlerTIM1_UP)
    BSP_IntHandlerTIM2                       0x08000705   Thumb Code    10  int_is.o(i.BSP_IntHandlerTIM2)
    BSP_IntHandlerTIM3                       0x0800070f   Thumb Code    10  int_is.o(i.BSP_IntHandlerTIM3)
    BSP_IntHandlerTIM4                       0x08000719   Thumb Code    10  int_is.o(i.BSP_IntHandlerTIM4)
    BSP_IntHandlerUSART1                     0x08000723   Thumb Code    10  int_is.o(i.BSP_IntHandlerUSART1)
    BSP_IntHandlerUSART2                     0x0800072d   Thumb Code    10  int_is.o(i.BSP_IntHandlerUSART2)
    BSP_IntHandlerUSART3                     0x08000737   Thumb Code    10  int_is.o(i.BSP_IntHandlerUSART3)
    BSP_IntHandlerUSBWakeUp                  0x08000741   Thumb Code    10  int_is.o(i.BSP_IntHandlerUSBWakeUp)
    BSP_IntHandlerUSB_HP_CAN_TX              0x0800074b   Thumb Code    10  int_is.o(i.BSP_IntHandlerUSB_HP_CAN_TX)
    BSP_IntHandlerUSB_LP_CAN_RX0             0x08000755   Thumb Code    10  int_is.o(i.BSP_IntHandlerUSB_LP_CAN_RX0)
    BSP_IntHandlerWWDG                       0x0800075f   Thumb Code    10  int_is.o(i.BSP_IntHandlerWWDG)
    BSP_IntInit                              0x08000769   Thumb Code    46  int_is.o(i.BSP_IntInit)
    BSP_IntVectSet                           0x080007a9   Thumb Code    30  int_is.o(i.BSP_IntVectSet)
    ByteSwap                                 0x080007cd   Thumb Code    12  usb_regs.o(i.ByteSwap)
    CTR_LP                                   0x080007d9   Thumb Code   528  usb_int.o(i.CTR_LP)
    ClearDTOG_RX                             0x08000a0d   Thumb Code    50  usb_regs.o(i.ClearDTOG_RX)
    ClearDTOG_TX                             0x08000a45   Thumb Code    50  usb_regs.o(i.ClearDTOG_TX)
    Clear_Status_Out                         0x08000a7d   Thumb Code    30  usb_regs.o(i.Clear_Status_Out)
    DMA_ClearITPendingBit                    0x08000aa1   Thumb Code    18  stm32f10x_dma.o(i.DMA_ClearITPendingBit)
    DMA_Cmd                                  0x08000abd   Thumb Code    22  stm32f10x_dma.o(i.DMA_Cmd)
    DMA_DeInit                               0x08000ad5   Thumb Code   316  stm32f10x_dma.o(i.DMA_DeInit)
    DMA_GetITStatus                          0x08000c25   Thumb Code    34  stm32f10x_dma.o(i.DMA_GetITStatus)
    DMA_ITConfig                             0x08000c51   Thumb Code    18  stm32f10x_dma.o(i.DMA_ITConfig)
    DMA_Init                                 0x08000c63   Thumb Code    60  stm32f10x_dma.o(i.DMA_Init)
    DS18B20_InitConfiguration                0x08000c9f   Thumb Code    14  ds18b20.o(i.DS18B20_InitConfiguration)
    DS18B20_convert                          0x08000cad   Thumb Code    34  ds18b20.o(i.DS18B20_convert)
    DS18B20_read                             0x08000ccf   Thumb Code   130  ds18b20.o(i.DS18B20_read)
    EP1_IN_Callback                          0x080010dd   Thumb Code     8  usb_endp.o(i.EP1_IN_Callback)
    EP3_OUT_Callback                         0x080010e9   Thumb Code    36  usb_endp.o(i.EP3_OUT_Callback)
    EXTI_ClearITPendingBit                   0x08001115   Thumb Code     6  stm32f10x_exti.o(i.EXTI_ClearITPendingBit)
    EXTI_DeInit                              0x08001121   Thumb Code    30  stm32f10x_exti.o(i.EXTI_DeInit)
    EXTI_GenerateSWInterrupt                 0x08001155   Thumb Code    16  stm32f10x_exti.o(i.EXTI_GenerateSWInterrupt)
    EXTI_GetITStatus                         0x0800116d   Thumb Code    34  stm32f10x_exti.o(i.EXTI_GetITStatus)
    EXTI_Init                                0x08001199   Thumb Code   190  stm32f10x_exti.o(i.EXTI_Init)
    EXTI_StructInit                          0x08001265   Thumb Code    16  stm32f10x_exti.o(i.EXTI_StructInit)
    FLASH_PrefetchBufferCmd                  0x08001275   Thumb Code    22  stm32f10x_flash.o(i.FLASH_PrefetchBufferCmd)
    FLASH_SetLatency                         0x08001291   Thumb Code    18  stm32f10x_flash.o(i.FLASH_SetLatency)
    GPIO_EXTILineConfig                      0x080012a9   Thumb Code    60  stm32f10x_gpio.o(i.GPIO_EXTILineConfig)
    GPIO_Init                                0x080012e9   Thumb Code   274  stm32f10x_gpio.o(i.GPIO_Init)
    GPIO_ReadInputDataBit                    0x080013fb   Thumb Code    18  stm32f10x_gpio.o(i.GPIO_ReadInputDataBit)
    GPIO_ResetBits                           0x0800140d   Thumb Code     4  stm32f10x_gpio.o(i.GPIO_ResetBits)
    GPIO_SetBits                             0x08001411   Thumb Code     4  stm32f10x_gpio.o(i.GPIO_SetBits)
    GPIO_WriteBit                            0x08001415   Thumb Code    10  stm32f10x_gpio.o(i.GPIO_WriteBit)
    GetEPRxAddr                              0x08001421   Thumb Code    26  usb_regs.o(i.GetEPRxAddr)
    GetEPRxCount                             0x08001445   Thumb Code    28  usb_regs.o(i.GetEPRxCount)
    GetEPTxAddr                              0x08001469   Thumb Code    22  usb_regs.o(i.GetEPTxAddr)
    ISBoard_GPIO_Config                      0x08001489   Thumb Code   772  bsp_isv2.o(i.ISBoard_GPIO_Config)
    ISBoard_NVIC_Config                      0x080017b1   Thumb Code   110  bsp_isv2.o(i.ISBoard_NVIC_Config)
    ISBoard_RCC_Config                       0x0800181f   Thumb Code   134  bsp_isv2.o(i.ISBoard_RCC_Config)
    ISBoard_RTC_Init                         0x080018a5   Thumb Code   164  bsp_isv2.o(i.ISBoard_RTC_Init)
    ISBoard_getTime                          0x08001949   Thumb Code    68  bsp_isv2.o(i.ISBoard_getTime)
    ISBoard_setDvr                           0x0800198d   Thumb Code    64  bsp_isv2.o(i.ISBoard_setDvr)
    ISBoard_setLed                           0x080019d1   Thumb Code    68  bsp_isv2.o(i.ISBoard_setLed)
    ISBoard_updateClock                      0x08001a19   Thumb Code    54  bsp_isv2.o(i.ISBoard_updateClock)
    ISR_ADC1DMA                              0x08001a4f   Thumb Code    18  int_is.o(i.ISR_ADC1DMA)
    ISR_USBRX0                               0x08001a61   Thumb Code     8  int_is.o(i.ISR_USBRX0)
    ISR_nRF_IR                               0x08001a69   Thumb Code    72  int_is.o(i.ISR_nRF_IR)
    In0_Process                              0x08001abd   Thumb Code    98  usb_core.o(i.In0_Process)
    InitProcedure                            0x08001b2d   Thumb Code   102  tasks_usbcli.o(i.InitProcedure)
    NOP_Process                              0x08001b99   Thumb Code     2  usb_core.o(i.NOP_Process)
    NVIC_Init                                0x08001b9d   Thumb Code   118  misc.o(i.NVIC_Init)
    NVIC_PriorityGroupConfig                 0x08001c21   Thumb Code    10  misc.o(i.NVIC_PriorityGroupConfig)
    NVIC_SetVectorTable                      0x08001c35   Thumb Code    12  misc.o(i.NVIC_SetVectorTable)
    OSInit                                   0x08001d8d   Thumb Code    40  os_core.o(i.OSInit)
    OSInitHookBegin                          0x08001db5   Thumb Code     2  os_cpu_c.o(i.OSInitHookBegin)
    OSInitHookEnd                            0x08001db7   Thumb Code     2  os_cpu_c.o(i.OSInitHookEnd)
    OSIntExit                                0x08001db9   Thumb Code   112  os_core.o(i.OSIntExit)
    OSStart                                  0x08001e49   Thumb Code    48  os_core.o(i.OSStart)
    OSStatInit                               0x08001e91   Thumb Code    62  os_core.o(i.OSStatInit)
    OSTCBInitHook                            0x08001edd   Thumb Code    12  os_cpu_c.o(i.OSTCBInitHook)
    OSTaskCreate                             0x08001ee9   Thumb Code   148  os_task.o(i.OSTaskCreate)
    OSTaskCreateExt                          0x08001f89   Thumb Code   172  os_task.o(i.OSTaskCreateExt)
    OSTaskCreateHook                         0x08002041   Thumb Code    12  os_cpu_c.o(i.OSTaskCreateHook)
    OSTaskIdleHook                           0x0800204d   Thumb Code     8  os_cpu_c.o(i.OSTaskIdleHook)
    OSTaskNameSet                            0x08002055   Thumb Code   132  os_task.o(i.OSTaskNameSet)
    OSTaskStatHook                           0x080020e5   Thumb Code     8  os_cpu_c.o(i.OSTaskStatHook)
    OSTaskStkChk                             0x080020ed   Thumb Code   132  os_task.o(i.OSTaskStkChk)
    OSTaskStkInit                            0x08002179   Thumb Code   154  os_cpu_c.o(i.OSTaskStkInit)
    OSTaskSuspend                            0x08002215   Thumb Code   152  os_task.o(i.OSTaskSuspend)
    OSTaskSwHook                             0x080022bd   Thumb Code     8  os_cpu_c.o(i.OSTaskSwHook)
    OSTimeDly                                0x080022c5   Thumb Code    96  os_time.o(i.OSTimeDly)
    OSTimeDlyHMSM                            0x08002335   Thumb Code   108  os_time.o(i.OSTimeDlyHMSM)
    OSTimeGet                                0x080023a5   Thumb Code    24  os_time.o(i.OSTimeGet)
    OSTimeSet                                0x080023c1   Thumb Code    24  os_time.o(i.OSTimeSet)
    OSTimeTick                               0x080023dd   Thumb Code   220  os_core.o(i.OSTimeTick)
    OSTimeTickHook                           0x080024d1   Thumb Code     2  os_cpu_c.o(i.OSTimeTickHook)
    OS_CPU_SysTickClkFreq                    0x080024d3   Thumb Code    12  bsp_isv2.o(i.OS_CPU_SysTickClkFreq)
    OS_CPU_SysTickHandler                    0x080024e1   Thumb Code    34  os_cpu_c.o(i.OS_CPU_SysTickHandler)
    OS_CPU_SysTickInit                       0x08002509   Thumb Code    44  os_cpu_c.o(i.OS_CPU_SysTickInit)
    OS_FlagInit                              0x08002535   Thumb Code    68  os_flag.o(i.OS_FlagInit)
    OS_MemClr                                0x08002775   Thumb Code    18  os_core.o(i.OS_MemClr)
    OS_Sched                                 0x08002789   Thumb Code    86  os_core.o(i.OS_Sched)
    OS_StrCopy                               0x08002829   Thumb Code    28  os_core.o(i.OS_StrCopy)
    OS_StrLen                                0x08002845   Thumb Code    20  os_core.o(i.OS_StrLen)
    OS_TCBInit                               0x08002859   Thumb Code   282  os_core.o(i.OS_TCBInit)
    OS_TaskIdle                              0x0800298d   Thumb Code    32  os_core.o(i.OS_TaskIdle)
    OS_TaskStat                              0x080029b1   Thumb Code   114  os_core.o(i.OS_TaskStat)
    OS_TaskStatStkChk                        0x08002a39   Thumb Code    54  os_core.o(i.OS_TaskStatStkChk)
    OS_TaskStkClr                            0x08002a75   Thumb Code    26  os_task.o(i.OS_TaskStkClr)
    OWPortal_dqH                             0x08002a91   Thumb Code    14  bsp_isv2.o(i.OWPortal_dqH)
    OWPortal_dqL                             0x08002aa5   Thumb Code    14  bsp_isv2.o(i.OWPortal_dqL)
    OWPortal_dqV                             0x08002ab9   Thumb Code    14  bsp_isv2.o(i.OWPortal_dqV)
    OWPortal_readBit                         0x08002acd   Thumb Code    68  1wire.o(i.OWPortal_readBit)
    OWPortal_reset                           0x08002b11   Thumb Code   100  1wire.o(i.OWPortal_reset)
    OWPortal_writeBit                        0x08002b75   Thumb Code    46  1wire.o(i.OWPortal_writeBit)
    OWReadByte                               0x08002ba3   Thumb Code    36  1wire.o(i.OWReadByte)
    OWWriteByte                              0x08002bc7   Thumb Code    32  1wire.o(i.OWWriteByte)
    OnMessageReceived                        0x08002be9   Thumb Code   236  tasks_usbcli.o(i.OnMessageReceived)
    OnWirelessMsg                            0x08002cd9   Thumb Code    22  tasks_usbcli.o(i.OnWirelessMsg)
    Out0_Process                             0x08002cf1   Thumb Code    70  usb_core.o(i.Out0_Process)
    PMAToUserBufferCopy                      0x08002d41   Thumb Code    32  usb_mem.o(i.PMAToUserBufferCopy)
    PWR_BackupAccessCmd                      0x08002d65   Thumb Code     6  stm32f10x_pwr.o(i.PWR_BackupAccessCmd)
    Post0_Process                            0x08002d71   Thumb Code    56  usb_core.o(i.Post0_Process)
    PowerOn                                  0x08002db9   Thumb Code    64  usb_pwr.o(i.PowerOn)
    Pulse_capture                            0x08002e09   Thumb Code   250  pulses.o(i.Pulse_capture)
    Pulse_parseSignals                       0x08002f09   Thumb Code   490  pulses.o(i.Pulse_parseSignals)
    RCC_AHBPeriphClockCmd                    0x080030f5   Thumb Code    26  stm32f10x_rcc.o(i.RCC_AHBPeriphClockCmd)
    RCC_APB1PeriphClockCmd                   0x08003115   Thumb Code    26  stm32f10x_rcc.o(i.RCC_APB1PeriphClockCmd)
    RCC_APB2PeriphClockCmd                   0x08003135   Thumb Code    26  stm32f10x_rcc.o(i.RCC_APB2PeriphClockCmd)
    RCC_BackupResetCmd                       0x08003155   Thumb Code     6  stm32f10x_rcc.o(i.RCC_BackupResetCmd)
    RCC_ClearFlag                            0x08003161   Thumb Code    14  stm32f10x_rcc.o(i.RCC_ClearFlag)
    RCC_DeInit                               0x08003175   Thumb Code    62  stm32f10x_rcc.o(i.RCC_DeInit)
    RCC_GetClocksFreq                        0x080031c1   Thumb Code   192  stm32f10x_rcc.o(i.RCC_GetClocksFreq)
    RCC_GetFlagStatus                        0x08003295   Thumb Code    56  stm32f10x_rcc.o(i.RCC_GetFlagStatus)
    RCC_GetSYSCLKSource                      0x080032d1   Thumb Code    10  stm32f10x_rcc.o(i.RCC_GetSYSCLKSource)
    RCC_HCLKConfig                           0x080032e1   Thumb Code    18  stm32f10x_rcc.o(i.RCC_HCLKConfig)
    RCC_HSEConfig                            0x080032f9   Thumb Code    70  stm32f10x_rcc.o(i.RCC_HSEConfig)
    RCC_LSEConfig                            0x08003345   Thumb Code    44  stm32f10x_rcc.o(i.RCC_LSEConfig)
    RCC_PCLK1Config                          0x08003379   Thumb Code    18  stm32f10x_rcc.o(i.RCC_PCLK1Config)
    RCC_PCLK2Config                          0x08003391   Thumb Code    20  stm32f10x_rcc.o(i.RCC_PCLK2Config)
    RCC_PLLCmd                               0x080033a9   Thumb Code     6  stm32f10x_rcc.o(i.RCC_PLLCmd)
    RCC_PLLConfig                            0x080033b5   Thumb Code    24  stm32f10x_rcc.o(i.RCC_PLLConfig)
    RCC_RTCCLKCmd                            0x080033d1   Thumb Code     6  stm32f10x_rcc.o(i.RCC_RTCCLKCmd)
    RCC_RTCCLKConfig                         0x080033dd   Thumb Code    12  stm32f10x_rcc.o(i.RCC_RTCCLKConfig)
    RCC_SYSCLKConfig                         0x080033ed   Thumb Code    18  stm32f10x_rcc.o(i.RCC_SYSCLKConfig)
    RCC_USBCLKConfig                         0x08003405   Thumb Code     6  stm32f10x_rcc.o(i.RCC_USBCLKConfig)
    RCC_WaitForHSEStartUp                    0x08003411   Thumb Code    46  stm32f10x_rcc.o(i.RCC_WaitForHSEStartUp)
    RTC_EnterConfigMode                      0x08003441   Thumb Code    16  stm32f10x_rtc.o(i.RTC_EnterConfigMode)
    RTC_ExitConfigMode                       0x08003459   Thumb Code    20  stm32f10x_rtc.o(i.RTC_ExitConfigMode)
    RTC_GetCounter                           0x08003475   Thumb Code    18  stm32f10x_rtc.o(i.RTC_GetCounter)
    RTC_ITConfig                             0x08003491   Thumb Code    40  stm32f10x_rtc.o(i.RTC_ITConfig)
    RTC_SetCounter                           0x080034c1   Thumb Code    26  stm32f10x_rtc.o(i.RTC_SetCounter)
    RTC_SetPrescaler                         0x080034e5   Thumb Code    28  stm32f10x_rtc.o(i.RTC_SetPrescaler)
    RTC_WaitForLastTask                      0x08003509   Thumb Code    14  stm32f10x_rtc.o(i.RTC_WaitForLastTask)
    RTC_WaitForSynchro                       0x0800351d   Thumb Code    32  stm32f10x_rtc.o(i.RTC_WaitForSynchro)
    SPI_Cmd                                  0x08003545   Thumb Code    24  stm32f10x_spi.o(i.SPI_Cmd)
    SPI_I2S_GetFlagStatus                    0x0800355d   Thumb Code    18  stm32f10x_spi.o(i.SPI_I2S_GetFlagStatus)
    SPI_I2S_ReceiveData                      0x0800356f   Thumb Code     6  stm32f10x_spi.o(i.SPI_I2S_ReceiveData)
    SPI_I2S_SendData                         0x08003575   Thumb Code     4  stm32f10x_spi.o(i.SPI_I2S_SendData)
    SPI_Init                                 0x08003579   Thumb Code    60  stm32f10x_spi.o(i.SPI_Init)
    SetBTABLE                                0x080035e9   Thumb Code    12  usb_regs.o(i.SetBTABLE)
    SetDeviceAddress                         0x080035f9   Thumb Code    64  usb_core.o(i.SetDeviceAddress)
    SetEPRxAddr                              0x08003645   Thumb Code    28  usb_regs.o(i.SetEPRxAddr)
    SetEPRxCount                             0x08003669   Thumb Code    70  usb_regs.o(i.SetEPRxCount)
    SetEPRxStatus                            0x080036b9   Thumb Code    54  usb_regs.o(i.SetEPRxStatus)
    SetEPRxValid                             0x080036f5   Thumb Code    40  usb_regs.o(i.SetEPRxValid)
    SetEPTxAddr                              0x08003721   Thumb Code    24  usb_regs.o(i.SetEPTxAddr)
    SetEPTxCount                             0x08003741   Thumb Code    22  usb_regs.o(i.SetEPTxCount)
    SetEPTxStatus                            0x08003761   Thumb Code    54  usb_regs.o(i.SetEPTxStatus)
    SetEPTxValid                             0x0800379d   Thumb Code    40  usb_regs.o(i.SetEPTxValid)
    SetEPType                                0x080037c9   Thumb Code    32  usb_regs.o(i.SetEPType)
    Set_USBClock                             0x080037ed   Thumb Code    18  bsp_isv2.o(i.Set_USBClock)
    Setup0_Process                           0x08003801   Thumb Code   164  usb_core.o(i.Setup0_Process)
    Standard_ClearFeature                    0x080038b1   Thumb Code   330  usb_core.o(i.Standard_ClearFeature)
    Standard_GetConfiguration                0x08003a11   Thumb Code    34  usb_core.o(i.Standard_GetConfiguration)
    Standard_GetDescriptorData               0x08003a3d   Thumb Code    32  usb_core.o(i.Standard_GetDescriptorData)
    Standard_GetInterface                    0x08003a61   Thumb Code    34  usb_core.o(i.Standard_GetInterface)
    Standard_GetStatus                       0x08003a8d   Thumb Code   224  usb_core.o(i.Standard_GetStatus)
    Standard_SetConfiguration                0x08003b7d   Thumb Code    60  usb_core.o(i.Standard_SetConfiguration)
    Standard_SetDeviceFeature                0x08003bc5   Thumb Code    30  usb_core.o(i.Standard_SetDeviceFeature)
    Standard_SetEndPointFeature              0x08003bed   Thumb Code   180  usb_core.o(i.Standard_SetEndPointFeature)
    Standard_SetInterface                    0x08003cb1   Thumb Code    96  usb_core.o(i.Standard_SetInterface)
    Timer_isStepping                         0x0800415d   Thumb Code    40  common.o(i.Timer_isStepping)
    Timer_start                              0x0800418d   Thumb Code    60  common.o(i.Timer_start)
    Timer_stop                               0x080041d5   Thumb Code    54  common.o(i.Timer_stop)
    USART_ClockInit                          0x08004219   Thumb Code    34  stm32f10x_usart.o(i.USART_ClockInit)
    USART_Cmd                                0x0800423b   Thumb Code    24  stm32f10x_usart.o(i.USART_Cmd)
    USART_Init                               0x08004255   Thumb Code   150  stm32f10x_usart.o(i.USART_Init)
    USART_open                               0x080042f1   Thumb Code    90  bsp_isv2.o(i.USART_open)
    USB_Cable_Config                         0x0800434b   Thumb Code    22  bsp_isv2.o(i.USB_Cable_Config)
    USB_Init                                 0x08004361   Thumb Code    36  usb_init.o(i.USB_Init)
    USB_Istr                                 0x0800439d   Thumb Code    98  usb_istr.o(i.USB_Istr)
    UserToPMABufferCopy                      0x08004415   Thumb Code    52  usb_mem.o(i.UserToPMABufferCopy)
    Virtual_Com_Port_Data_Setup              0x0800444d   Thumb Code    82  usb_prop.o(i.Virtual_Com_Port_Data_Setup)
    Virtual_Com_Port_GetConfigDescriptor     0x080044b1   Thumb Code    14  usb_prop.o(i.Virtual_Com_Port_GetConfigDescriptor)
    Virtual_Com_Port_GetDeviceDescriptor     0x080044c5   Thumb Code    14  usb_prop.o(i.Virtual_Com_Port_GetDeviceDescriptor)
    Virtual_Com_Port_GetLineCoding           0x080044d9   Thumb Code    20  usb_prop.o(i.Virtual_Com_Port_GetLineCoding)
    Virtual_Com_Port_GetStringDescriptor     0x080044f5   Thumb Code    24  usb_prop.o(i.Virtual_Com_Port_GetStringDescriptor)
    Virtual_Com_Port_Get_Interface_Setting   0x08004515   Thumb Code    22  usb_prop.o(i.Virtual_Com_Port_Get_Interface_Setting)
    Virtual_Com_Port_NoData_Setup            0x0800452d   Thumb Code    36  usb_prop.o(i.Virtual_Com_Port_NoData_Setup)
    Virtual_Com_Port_Reset                   0x08004555   Thumb Code   198  usb_prop.o(i.Virtual_Com_Port_Reset)
    Virtual_Com_Port_SetLineCoding           0x08004625   Thumb Code    20  usb_prop.o(i.Virtual_Com_Port_SetLineCoding)
    Virtual_Com_Port_Status_In               0x08004641   Thumb Code    16  usb_prop.o(i.Virtual_Com_Port_Status_In)
    Virtual_Com_Port_Status_Out              0x08004655   Thumb Code     2  usb_prop.o(i.Virtual_Com_Port_Status_Out)
    Virtual_Com_Port_init                    0x08004659   Thumb Code    80  usb_prop.o(i.Virtual_Com_Port_init)
    __0sprintf$8                             0x080046c1   Thumb Code    34  printf8.o(i.__0sprintf$8)
    __1sprintf$8                             0x080046c1   Thumb Code     0  printf8.o(i.__0sprintf$8)
    __2sprintf                               0x080046c1   Thumb Code     0  printf8.o(i.__0sprintf$8)
    __scatterload_copy                       0x080046e9   Thumb Code    14  handlers.o(i.__scatterload_copy)
    __scatterload_null                       0x080046f7   Thumb Code     2  handlers.o(i.__scatterload_null)
    __scatterload_zeroinit                   0x080046f9   Thumb Code    14  handlers.o(i.__scatterload_zeroinit)
    delayXmsec                               0x08004b8f   Thumb Code    34  common.o(i.delayXmsec)
    delayXusec                               0x08004bb1   Thumb Code    26  common.o(i.delayXusec)
    hex2int                                  0x08004bcb   Thumb Code    62  common.o(i.hex2int)
    hexchval                                 0x08004c09   Thumb Code    54  common.o(i.hexchval)
    irRecvBit                                0x08004c41   Thumb Code    22  bsp_isv2.o(i.irRecvBit)
    main                                     0x08004c5d   Thumb Code    60  tasks_usbcli.o(i.main)
    motionState                              0x08004ca1   Thumb Code    24  bsp_isv2.o(i.motionState)
    nRF24L01_RW_Reg                          0x08004cbd   Thumb Code    20  nrf24l01.o(i.nRF24L01_RW_Reg)
    nRF24L01_TxPacket                        0x08004cd1   Thumb Code   222  nrf24l01.o(i.nRF24L01_TxPacket)
    nRF24L01_config                          0x08004db9   Thumb Code    34  nrf24l01.o(i.nRF24L01_config)
    nRF24L01_init                            0x08004ddb   Thumb Code   436  nrf24l01.o(i.nRF24L01_init)
    nRF24L01_readBuff                        0x08004f8f   Thumb Code    66  nrf24l01.o(i.nRF24L01_readBuff)
    nRF24L01_readReg                         0x08004fd1   Thumb Code    28  nrf24l01.o(i.nRF24L01_readReg)
    nRF24L01_setModeRX                       0x08004fed   Thumb Code    56  nrf24l01.o(i.nRF24L01_setModeRX)
    nRF24L01_setModeTX                       0x08005025   Thumb Code   136  nrf24l01.o(i.nRF24L01_setModeTX)
    nRF24L01_writeBuff                       0x080050ad   Thumb Code    64  nrf24l01.o(i.nRF24L01_writeBuff)
    nRF24L01_writeReg                        0x080050ed   Thumb Code    20  nrf24l01.o(i.nRF24L01_writeReg)
    processIRQ_nRF24L01                      0x08005101   Thumb Code   216  nrf24l01.o(i.processIRQ_nRF24L01)
    sendMsgToUsb                             0x080051e1   Thumb Code    42  tasks_usbcli.o(i.sendMsgToUsb)
    sendTxtMsgToNRF                          0x0800520d   Thumb Code   314  tasks_usbcli.o(i.sendTxtMsgToNRF)
    Virtual_Com_Port_DeviceDescriptor        0x08005350   Data          18  usb_desc.o(.constdata)
    Virtual_Com_Port_ConfigDescriptor        0x08005362   Data          67  usb_desc.o(.constdata)
    Virtual_Com_Port_StringLangID            0x080053a5   Data           4  usb_desc.o(.constdata)
    Virtual_Com_Port_StringVendor            0x080053a9   Data          38  usb_desc.o(.constdata)
    Virtual_Com_Port_StringProduct           0x080053cf   Data          50  usb_desc.o(.constdata)
    Virtual_Com_Port_StringSerial            0x08005401   Data          22  usb_desc.o(.constdata)
    OSUnMapTbl                               0x08005450   Data         256  os_core.o(.constdata)
    Region$$Table$$Base                      0x08005550   Number         0  anon$$obj.o(Region$$Table)
    Region$$Table$$Limit                     0x08005570   Number         0  anon$$obj.o(Region$$Table)
    pulseCapBuf                              0x20000000   Data          12  int_is.o(.data)
    count_out                                0x2000000c   Data           4  usb_endp.o(.data)
    count_in                                 0x20000010   Data           4  usb_endp.o(.data)
    bIntPackSOF                              0x20000014   Data           1  usb_istr.o(.data)
    pEpInt_IN                                0x20000018   Data          28  usb_istr.o(.data)
    pEpInt_OUT                               0x20000034   Data          28  usb_istr.o(.data)
    wIstr                                    0x20000050   Data           2  usb_istr.o(.data)
    Request                                  0x20000054   Data           1  usb_prop.o(.data)
    linecoding                               0x20000058   Data           8  usb_prop.o(.data)
    Device_Table                             0x20000060   Data           2  usb_prop.o(.data)
    Device_Property                          0x20000064   Data          48  usb_prop.o(.data)
    User_Standard_Requests                   0x20000094   Data          36  usb_prop.o(.data)
    Device_Descriptor                        0x200000b8   Data           8  usb_prop.o(.data)
    Config_Descriptor                        0x200000c0   Data           8  usb_prop.o(.data)
    String_Descriptor                        0x200000c8   Data          32  usb_prop.o(.data)
    bDeviceState                             0x200000e8   Data           1  usb_pwr.o(.data)
    fSuspendEnabled                          0x200000e9   Data           1  usb_pwr.o(.data)
    ResumeS                                  0x200000ea   Data           2  usb_pwr.o(.data)
    timer_bitmap_enable                      0x200000ec   Data           2  common.o(.data)
    timer_bitmap_inPending                   0x200000ee   Data           2  common.o(.data)
    RF_masterId                              0x200000f8   Data           4  tasks_usbcli.o(.data)
    RF_masterPort                            0x200000fc   Data           1  tasks_usbcli.o(.data)
    nrf24l01                                 0x20000100   Data          40  tasks_usbcli.o(.data)
    pulses                                   0x20000128   Data           8  tasks_usbcli.o(.data)
    _deviceState                             0x20000130   Data           4  tasks_usbcli.o(.data)
    ADC_DMAbuf                               0x20000136   Data           4  tasks_usbcli.o(.data)
    StatusInfo                               0x2000013a   Data           2  usb_core.o(.data)
    EPindex                                  0x2000013c   Data           1  usb_init.o(.data)
    pInformation                             0x20000140   Data           4  usb_init.o(.data)
    pProperty                                0x20000144   Data           4  usb_init.o(.data)
    SaveState                                0x20000148   Data           2  usb_init.o(.data)
    wInterrupt_Mask                          0x2000014a   Data           2  usb_init.o(.data)
    pUser_Standard_Requests                  0x2000014c   Data           4  usb_init.o(.data)
    SaveRState                               0x20000150   Data           2  usb_int.o(.data)
    SaveTState                               0x20000152   Data           2  usb_int.o(.data)
    OSCtxSwCtr                               0x20000168   Data           4  os_core.o(.data)
    OSEventFreeList                          0x2000016c   Data           4  os_core.o(.data)
    OSFlagFreeList                           0x20000170   Data           4  os_core.o(.data)
    OSCPUUsage                               0x20000174   Data           1  os_core.o(.data)
    OSIdleCtrMax                             0x20000178   Data           4  os_core.o(.data)
    OSIdleCtrRun                             0x2000017c   Data           4  os_core.o(.data)
    OSStatRdy                                0x20000180   Data           1  os_core.o(.data)
    OSIntNesting                             0x20000181   Data           1  os_core.o(.data)
    OSLockNesting                            0x20000182   Data           1  os_core.o(.data)
    OSPrioCur                                0x20000183   Data           1  os_core.o(.data)
    OSPrioHighRdy                            0x20000184   Data           1  os_core.o(.data)
    OSRdyGrp                                 0x20000185   Data           1  os_core.o(.data)
    OSRdyTbl                                 0x20000186   Data           4  os_core.o(.data)
    OSRunning                                0x2000018a   Data           1  os_core.o(.data)
    OSTaskCtr                                0x2000018b   Data           1  os_core.o(.data)
    OSIdleCtr                                0x2000018c   Data           4  os_core.o(.data)
    OSTCBCur                                 0x20000190   Data           4  os_core.o(.data)
    OSTCBFreeList                            0x20000194   Data           4  os_core.o(.data)
    OSTCBHighRdy                             0x20000198   Data           4  os_core.o(.data)
    OSTCBList                                0x2000019c   Data           4  os_core.o(.data)
    OSTickStepState                          0x200001a0   Data           1  os_core.o(.data)
    OSTime                                   0x200001a4   Data           4  os_core.o(.data)
    plusseq                                  0x20000250   Data         164  int_is.o(.bss)
    buffer_out                               0x200002f4   Data          64  usb_endp.o(.bss)
    ds18b20                                  0x20000338   Data          16  bsp_isv2.o(.bss)
    timer_tbl                                0x20000348   Data          36  common.o(.bss)
    _pendingLines                            0x2000036c   Data         166  common.o(.bss)
    _pendTxtMsgs                             0x200007e8   Data         515  tasks_usbcli.o(.bss)
    irseq                                    0x200009eb   Data          50  tasks_usbcli.o(.bss)
    txBuf                                    0x20000a1d   Data          80  tasks_usbcli.o(.bss)
    Device_Info                              0x20000a70   Data          28  usb_init.o(.bss)
    OSEventTbl                               0x20000a8c   Data         320  os_core.o(.bss)
    OSFlagTbl                                0x20000bcc   Data         140  os_core.o(.bss)
    OSTaskStatStk                            0x20000c58   Data         512  os_core.o(.bss)
    OSTaskIdleStk                            0x20000e58   Data         512  os_core.o(.bss)
    OSTCBPrioTbl                             0x20001058   Data         128  os_core.o(.bss)
    OSTCBTbl                                 0x200010d8   Data        1104  os_core.o(.bss)
    Image$$ARM_LIB_STACK$$ZI$$Limit          0x20004b00   Number         0  anon$$obj.o(ARM_LIB_STACK.bss)



==============================================================================

Memory Map of the image

  Image Entry point : 0x08000365

  Load Region LR_IROM1 (Base: 0x08000000, Size: 0x00005718, Max: 0x00020000, ABSOLUTE, COMPRESSED[0x00005614])

    Execution Region ER_IROM1 (Base: 0x08000000, Size: 0x00005570, Max: 0x08020000, ABSOLUTE)

    Base Addr    Size         Type   Attr      Idx    E Section Name        Object

    0x08000000   0x000000f8   Code   RO         4781  * VECT                vectors.o
    0x080000f8   0x00000000   Code   RO         5625  * .ARM.Collect$$$$00000000  mc_w.l(entry.o)(mc_w.l)
    0x080000f8   0x00000004   Code   RO         5899    .ARM.Collect$$$$00000003  mc_w.l(entry4.o)(mc_w.l)
    0x080000fc   0x00000004   Code   RO         5902    .ARM.Collect$$$$00000004  mc_w.l(entry5.o)(mc_w.l)
    0x08000100   0x00000008   Code   RO         5903    .ARM.Collect$$$$00000007  mc_w.l(entry7.o)(mc_w.l)
    0x08000108   0x00000004   Code   RO         5900    .ARM.Collect$$$$00002714  mc_w.l(entry4.o)(mc_w.l)
    0x0800010c   0x0000002a   Code   RO         4791    .text               cpu_a.o
    0x08000136   0x00000002   PAD
    0x08000138   0x000000a4   Code   RO         5498    .text               os_cpu_a.o
    0x080001dc   0x00000026   Code   RO         5628    .text               mc_w.l(memseta.o)(mc_w.l)
    0x08000202   0x0000002c   Code   RO         5630    .text               mc_w.l(strstr.o)(mc_w.l)
    0x0800022e   0x00000010   Code   RO         5632    .text               mc_w.l(strlen.o)(mc_w.l)
    0x0800023e   0x00000066   Code   RO         5907    .text               mc_w.l(uldiv.o)(mc_w.l)
    0x080002a4   0x00000024   Code   RO         5920    .text               mc_w.l(init.o)(mc_w.l)
    0x080002c8   0x0000001e   Code   RO         5922    .text               mc_w.l(llshl.o)(mc_w.l)
    0x080002e6   0x00000020   Code   RO         5924    .text               mc_w.l(llushr.o)(mc_w.l)
    0x08000306   0x0000005c   Code   RO         5938    .text               mc_w.l(__dczerorl2.o)(mc_w.l)
    0x08000362   0x00000002   PAD
    0x08000364   0x00000008   Code   RO         4785  * INIT                init.o
    0x0800036c   0x00000016   Code   RO         2037    i.ADC_Cmd           stm32f10x_adc.o
    0x08000382   0x00000016   Code   RO         2038    i.ADC_DMACmd        stm32f10x_adc.o
    0x08000398   0x00000014   Code   RO         2045    i.ADC_GetCalibrationStatus  stm32f10x_adc.o
    0x080003ac   0x00000014   Code   RO         2051    i.ADC_GetResetCalibrationStatus  stm32f10x_adc.o
    0x080003c0   0x00000050   Code   RO         2055    i.ADC_Init          stm32f10x_adc.o
    0x08000410   0x000000b8   Code   RO         2059    i.ADC_RegularChannelConfig  stm32f10x_adc.o
    0x080004c8   0x0000000a   Code   RO         2060    i.ADC_ResetCalibration  stm32f10x_adc.o
    0x080004d2   0x0000000a   Code   RO         2064    i.ADC_StartCalibration  stm32f10x_adc.o
    0x080004dc   0x0000002c   Code   RO         2066    i.ADC_TempSensorVrefintCmd  stm32f10x_adc.o
    0x08000508   0x00000002   Code   RO         1267    i.App_TCBInitHook   tasks_usbcli.o
    0x0800050a   0x00000002   Code   RO         1268    i.App_TaskCreateHook  tasks_usbcli.o
    0x0800050c   0x00000002   Code   RO         1270    i.App_TaskIdleHook  tasks_usbcli.o
    0x0800050e   0x00000002   Code   RO         1271    i.App_TaskStatHook  tasks_usbcli.o
    0x08000510   0x00000002   Code   RO         1272    i.App_TaskSwHook    tasks_usbcli.o
    0x08000512   0x00000010   Code   RO         2255    i.BKP_DeInit        stm32f10x_bkp.o
    0x08000522   0x00000002   PAD
    0x08000524   0x00000010   Code   RO         2260    i.BKP_ReadBackupRegister  stm32f10x_bkp.o
    0x08000534   0x00000010   Code   RO         2264    i.BKP_WriteBackupRegister  stm32f10x_bkp.o
    0x08000544   0x00000010   Code   RO          757    i.BSP_CPU_ClkFreq   bsp_isv2.o
    0x08000554   0x00000024   Code   RO          758    i.BSP_Init          bsp_isv2.o
    0x08000578   0x00000008   Code   RO            5    i.BSP_IntDisAll     int_is.o
    0x08000580   0x00000038   Code   RO            7    i.BSP_IntHandler    int_is.o
    0x080005b8   0x0000000a   Code   RO            8    i.BSP_IntHandlerADC1_2  int_is.o
    0x080005c2   0x0000000a   Code   RO            9    i.BSP_IntHandlerCAN_RX1  int_is.o
    0x080005cc   0x0000000a   Code   RO           10    i.BSP_IntHandlerCAN_SCE  int_is.o
    0x080005d6   0x0000000a   Code   RO           11    i.BSP_IntHandlerDMA1_CH1  int_is.o
    0x080005e0   0x0000000a   Code   RO           12    i.BSP_IntHandlerDMA1_CH2  int_is.o
    0x080005ea   0x0000000a   Code   RO           13    i.BSP_IntHandlerDMA1_CH3  int_is.o
    0x080005f4   0x0000000a   Code   RO           14    i.BSP_IntHandlerDMA1_CH4  int_is.o
    0x080005fe   0x0000000a   Code   RO           15    i.BSP_IntHandlerDMA1_CH5  int_is.o
    0x08000608   0x0000000a   Code   RO           16    i.BSP_IntHandlerDMA1_CH6  int_is.o
    0x08000612   0x0000000a   Code   RO           17    i.BSP_IntHandlerDMA1_CH7  int_is.o
    0x0800061c   0x00000002   Code   RO           18    i.BSP_IntHandlerDummy  int_is.o
    0x0800061e   0x0000000a   Code   RO           19    i.BSP_IntHandlerEXTI0  int_is.o
    0x08000628   0x0000000a   Code   RO           20    i.BSP_IntHandlerEXTI1  int_is.o
    0x08000632   0x0000000a   Code   RO           21    i.BSP_IntHandlerEXTI15_10  int_is.o
    0x0800063c   0x0000000a   Code   RO           22    i.BSP_IntHandlerEXTI2  int_is.o
    0x08000646   0x0000000a   Code   RO           23    i.BSP_IntHandlerEXTI3  int_is.o
    0x08000650   0x0000000a   Code   RO           24    i.BSP_IntHandlerEXTI4  int_is.o
    0x0800065a   0x0000000a   Code   RO           25    i.BSP_IntHandlerEXTI9_5  int_is.o
    0x08000664   0x0000000a   Code   RO           26    i.BSP_IntHandlerFLASH  int_is.o
    0x0800066e   0x0000000a   Code   RO           27    i.BSP_IntHandlerI2C1_ER  int_is.o
    0x08000678   0x0000000a   Code   RO           28    i.BSP_IntHandlerI2C1_EV  int_is.o
    0x08000682   0x0000000a   Code   RO           29    i.BSP_IntHandlerI2C2_ER  int_is.o
    0x0800068c   0x0000000a   Code   RO           30    i.BSP_IntHandlerI2C2_EV  int_is.o
    0x08000696   0x0000000a   Code   RO           31    i.BSP_IntHandlerPVD  int_is.o
    0x080006a0   0x0000000a   Code   RO           32    i.BSP_IntHandlerRCC  int_is.o
    0x080006aa   0x0000000a   Code   RO           33    i.BSP_IntHandlerRTC  int_is.o
    0x080006b4   0x0000000a   Code   RO           34    i.BSP_IntHandlerRTCAlarm  int_is.o
    0x080006be   0x0000000a   Code   RO           35    i.BSP_IntHandlerSPI1  int_is.o
    0x080006c8   0x0000000a   Code   RO           36    i.BSP_IntHandlerSPI2  int_is.o
    0x080006d2   0x0000000a   Code   RO           37    i.BSP_IntHandlerTAMPER  int_is.o
    0x080006dc   0x0000000a   Code   RO           38    i.BSP_IntHandlerTIM1_BRK  int_is.o
    0x080006e6   0x0000000a   Code   RO           39    i.BSP_IntHandlerTIM1_CC  int_is.o
    0x080006f0   0x0000000a   Code   RO           40    i.BSP_IntHandlerTIM1_TRG_COM  int_is.o
    0x080006fa   0x0000000a   Code   RO           41    i.BSP_IntHandlerTIM1_UP  int_is.o
    0x08000704   0x0000000a   Code   RO           42    i.BSP_IntHandlerTIM2  int_is.o
    0x0800070e   0x0000000a   Code   RO           43    i.BSP_IntHandlerTIM3  int_is.o
    0x08000718   0x0000000a   Code   RO           44    i.BSP_IntHandlerTIM4  int_is.o
    0x08000722   0x0000000a   Code   RO           45    i.BSP_IntHandlerUSART1  int_is.o
    0x0800072c   0x0000000a   Code   RO           46    i.BSP_IntHandlerUSART2  int_is.o
    0x08000736   0x0000000a   Code   RO           47    i.BSP_IntHandlerUSART3  int_is.o
    0x08000740   0x0000000a   Code   RO           48    i.BSP_IntHandlerUSBWakeUp  int_is.o
    0x0800074a   0x0000000a   Code   RO           49    i.BSP_IntHandlerUSB_HP_CAN_TX  int_is.o
    0x08000754   0x0000000a   Code   RO           50    i.BSP_IntHandlerUSB_LP_CAN_RX0  int_is.o
    0x0800075e   0x0000000a   Code   RO           51    i.BSP_IntHandlerWWDG  int_is.o
    0x08000768   0x00000040   Code   RO           52    i.BSP_IntInit       int_is.o
    0x080007a8   0x00000024   Code   RO           54    i.BSP_IntVectSet    int_is.o
    0x080007cc   0x0000000c   Code   RO         1635    i.ByteSwap          usb_regs.o
    0x080007d8   0x00000234   Code   RO         1588    i.CTR_LP            usb_int.o
    0x08000a0c   0x00000038   Code   RO         1636    i.ClearDTOG_RX      usb_regs.o
    0x08000a44   0x00000038   Code   RO         1637    i.ClearDTOG_TX      usb_regs.o
    0x08000a7c   0x00000024   Code   RO         1642    i.Clear_Status_Out  usb_regs.o
    0x08000aa0   0x0000001c   Code   RO         2595    i.DMA_ClearITPendingBit  stm32f10x_dma.o
    0x08000abc   0x00000016   Code   RO         2596    i.DMA_Cmd           stm32f10x_dma.o
    0x08000ad2   0x00000002   PAD
    0x08000ad4   0x00000150   Code   RO         2597    i.DMA_DeInit        stm32f10x_dma.o
    0x08000c24   0x0000002c   Code   RO         2600    i.DMA_GetITStatus   stm32f10x_dma.o
    0x08000c50   0x00000012   Code   RO         2601    i.DMA_ITConfig      stm32f10x_dma.o
    0x08000c62   0x0000003c   Code   RO         2602    i.DMA_Init          stm32f10x_dma.o
    0x08000c9e   0x0000000e   Code   RO         1155    i.DS18B20_InitConfiguration  ds18b20.o
    0x08000cac   0x00000022   Code   RO         1156    i.DS18B20_convert   ds18b20.o
    0x08000cce   0x00000082   Code   RO         1157    i.DS18B20_read      ds18b20.o
    0x08000d50   0x0000008c   Code   RO         1445    i.DataStageIn       usb_core.o
    0x08000ddc   0x000000c0   Code   RO         1446    i.DataStageOut      usb_core.o
    0x08000e9c   0x00000240   Code   RO         1447    i.Data_Setup0       usb_core.o
    0x080010dc   0x0000000c   Code   RO          553    i.EP1_IN_Callback   usb_endp.o
    0x080010e8   0x0000002c   Code   RO          554    i.EP3_OUT_Callback  usb_endp.o
    0x08001114   0x0000000c   Code   RO         2661    i.EXTI_ClearITPendingBit  stm32f10x_exti.o
    0x08001120   0x00000034   Code   RO         2662    i.EXTI_DeInit       stm32f10x_exti.o
    0x08001154   0x00000018   Code   RO         2663    i.EXTI_GenerateSWInterrupt  stm32f10x_exti.o
    0x0800116c   0x0000002c   Code   RO         2665    i.EXTI_GetITStatus  stm32f10x_exti.o
    0x08001198   0x000000cc   Code   RO         2666    i.EXTI_Init         stm32f10x_exti.o
    0x08001264   0x00000010   Code   RO         2667    i.EXTI_StructInit   stm32f10x_exti.o
    0x08001274   0x0000001c   Code   RO         2728    i.FLASH_PrefetchBufferCmd  stm32f10x_flash.o
    0x08001290   0x00000018   Code   RO         2733    i.FLASH_SetLatency  stm32f10x_flash.o
    0x080012a8   0x00000040   Code   RO         2985    i.GPIO_EXTILineConfig  stm32f10x_gpio.o
    0x080012e8   0x00000112   Code   RO         2988    i.GPIO_Init         stm32f10x_gpio.o
    0x080013fa   0x00000012   Code   RO         2992    i.GPIO_ReadInputDataBit  stm32f10x_gpio.o
    0x0800140c   0x00000004   Code   RO         2995    i.GPIO_ResetBits    stm32f10x_gpio.o
    0x08001410   0x00000004   Code   RO         2996    i.GPIO_SetBits      stm32f10x_gpio.o
    0x08001414   0x0000000a   Code   RO         2999    i.GPIO_WriteBit     stm32f10x_gpio.o
    0x0800141e   0x00000002   PAD
    0x08001420   0x00000024   Code   RO         1654    i.GetEPRxAddr       usb_regs.o
    0x08001444   0x00000024   Code   RO         1655    i.GetEPRxCount      usb_regs.o
    0x08001468   0x00000020   Code   RO         1657    i.GetEPTxAddr       usb_regs.o
    0x08001488   0x00000328   Code   RO          762    i.ISBoard_GPIO_Config  bsp_isv2.o
    0x080017b0   0x0000006e   Code   RO          763    i.ISBoard_NVIC_Config  bsp_isv2.o
    0x0800181e   0x00000086   Code   RO          764    i.ISBoard_RCC_Config  bsp_isv2.o
    0x080018a4   0x000000a4   Code   RO          765    i.ISBoard_RTC_Init  bsp_isv2.o
    0x08001948   0x00000044   Code   RO          766    i.ISBoard_getTime   bsp_isv2.o
    0x0800198c   0x00000044   Code   RO          768    i.ISBoard_setDvr    bsp_isv2.o
    0x080019d0   0x00000048   Code   RO          769    i.ISBoard_setLed    bsp_isv2.o
    0x08001a18   0x00000036   Code   RO          770    i.ISBoard_updateClock  bsp_isv2.o
    0x08001a4e   0x00000012   Code   RO           55    i.ISR_ADC1DMA       int_is.o
    0x08001a60   0x00000008   Code   RO           56    i.ISR_USBRX0        int_is.o
    0x08001a68   0x00000054   Code   RO           57    i.ISR_nRF_IR        int_is.o
    0x08001abc   0x00000070   Code   RO         1448    i.In0_Process       usb_core.o
    0x08001b2c   0x0000006c   Code   RO         1273    i.InitProcedure     tasks_usbcli.o
    0x08001b98   0x00000002   Code   RO         1449    i.NOP_Process       usb_core.o
    0x08001b9a   0x00000002   PAD
    0x08001b9c   0x00000084   Code   RO         1995    i.NVIC_Init         misc.o
    0x08001c20   0x00000014   Code   RO         1996    i.NVIC_PriorityGroupConfig  misc.o
    0x08001c34   0x00000014   Code   RO         1997    i.NVIC_SetVectorTable  misc.o
    0x08001c48   0x00000144   Code   RO         1450    i.NoData_Setup0     usb_core.o
    0x08001d8c   0x00000028   Code   RO         4848    i.OSInit            os_core.o
    0x08001db4   0x00000002   Code   RO         5397    i.OSInitHookBegin   os_cpu_c.o
    0x08001db6   0x00000002   Code   RO         5398    i.OSInitHookEnd     os_cpu_c.o
    0x08001db8   0x00000090   Code   RO         4850    i.OSIntExit         os_core.o
    0x08001e48   0x00000048   Code   RO         4853    i.OSStart           os_core.o
    0x08001e90   0x0000004c   Code   RO         4854    i.OSStatInit        os_core.o
    0x08001edc   0x0000000c   Code   RO         5399    i.OSTCBInitHook     os_cpu_c.o
    0x08001ee8   0x000000a0   Code   RO         5278    i.OSTaskCreate      os_task.o
    0x08001f88   0x000000b8   Code   RO         5279    i.OSTaskCreateExt   os_task.o
    0x08002040   0x0000000c   Code   RO         5400    i.OSTaskCreateHook  os_cpu_c.o
    0x0800204c   0x00000008   Code   RO         5402    i.OSTaskIdleHook    os_cpu_c.o
    0x08002054   0x00000090   Code   RO         5283    i.OSTaskNameSet     os_task.o
    0x080020e4   0x00000008   Code   RO         5403    i.OSTaskStatHook    os_cpu_c.o
    0x080020ec   0x0000008c   Code   RO         5286    i.OSTaskStkChk      os_task.o
    0x08002178   0x0000009a   Code   RO         5404    i.OSTaskStkInit     os_cpu_c.o
    0x08002212   0x00000002   PAD
    0x08002214   0x000000a8   Code   RO         5287    i.OSTaskSuspend     os_task.o
    0x080022bc   0x00000008   Code   RO         5405    i.OSTaskSwHook      os_cpu_c.o
    0x080022c4   0x00000070   Code   RO         5355    i.OSTimeDly         os_time.o
    0x08002334   0x00000070   Code   RO         5356    i.OSTimeDlyHMSM     os_time.o
    0x080023a4   0x0000001c   Code   RO         5358    i.OSTimeGet         os_time.o
    0x080023c0   0x0000001c   Code   RO         5359    i.OSTimeSet         os_time.o
    0x080023dc   0x000000f4   Code   RO         4855    i.OSTimeTick        os_core.o
    0x080024d0   0x00000002   Code   RO         5406    i.OSTimeTickHook    os_cpu_c.o
    0x080024d2   0x0000000c   Code   RO          772    i.OS_CPU_SysTickClkFreq  bsp_isv2.o
    0x080024de   0x00000002   PAD
    0x080024e0   0x00000028   Code   RO         5407    i.OS_CPU_SysTickHandler  os_cpu_c.o
    0x08002508   0x0000002c   Code   RO         5408    i.OS_CPU_SysTickInit  os_cpu_c.o
    0x08002534   0x0000004c   Code   RO         5075    i.OS_FlagInit       os_flag.o
    0x08002580   0x00000050   Code   RO         4864    i.OS_InitEventList  os_core.o
    0x080025d0   0x00000054   Code   RO         4865    i.OS_InitMisc       os_core.o
    0x08002624   0x00000048   Code   RO         4866    i.OS_InitRdyList    os_core.o
    0x0800266c   0x00000068   Code   RO         4867    i.OS_InitTCBList    os_core.o
    0x080026d4   0x00000050   Code   RO         4868    i.OS_InitTaskIdle   os_core.o
    0x08002724   0x00000050   Code   RO         4869    i.OS_InitTaskStat   os_core.o
    0x08002774   0x00000012   Code   RO         4870    i.OS_MemClr         os_core.o
    0x08002786   0x00000002   PAD
    0x08002788   0x00000074   Code   RO         4872    i.OS_Sched          os_core.o
    0x080027fc   0x0000002c   Code   RO         4873    i.OS_SchedNew       os_core.o
    0x08002828   0x0000001c   Code   RO         4874    i.OS_StrCopy        os_core.o
    0x08002844   0x00000014   Code   RO         4875    i.OS_StrLen         os_core.o
    0x08002858   0x00000134   Code   RO         4876    i.OS_TCBInit        os_core.o
    0x0800298c   0x00000024   Code   RO         4877    i.OS_TaskIdle       os_core.o
    0x080029b0   0x00000088   Code   RO         4878    i.OS_TaskStat       os_core.o
    0x08002a38   0x0000003c   Code   RO         4879    i.OS_TaskStatStkChk  os_core.o
    0x08002a74   0x0000001a   Code   RO         5288    i.OS_TaskStkClr     os_task.o
    0x08002a8e   0x00000002   PAD
    0x08002a90   0x00000014   Code   RO          773    i.OWPortal_dqH      bsp_isv2.o
    0x08002aa4   0x00000014   Code   RO          774    i.OWPortal_dqL      bsp_isv2.o
    0x08002ab8   0x00000014   Code   RO          775    i.OWPortal_dqV      bsp_isv2.o
    0x08002acc   0x00000044   Code   RO          935    i.OWPortal_readBit  1wire.o
    0x08002b10   0x00000064   Code   RO          936    i.OWPortal_reset    1wire.o
    0x08002b74   0x0000002e   Code   RO          937    i.OWPortal_writeBit  1wire.o
    0x08002ba2   0x00000024   Code   RO          938    i.OWReadByte        1wire.o
    0x08002bc6   0x00000020   Code   RO          943    i.OWWriteByte       1wire.o
    0x08002be6   0x00000002   PAD
    0x08002be8   0x000000f0   Code   RO         1274    i.OnMessageReceived  tasks_usbcli.o
    0x08002cd8   0x00000016   Code   RO         1275    i.OnWirelessMsg     tasks_usbcli.o
    0x08002cee   0x00000002   PAD
    0x08002cf0   0x00000050   Code   RO         1451    i.Out0_Process      usb_core.o
    0x08002d40   0x00000024   Code   RO         1617    i.PMAToUserBufferCopy  usb_mem.o
    0x08002d64   0x0000000c   Code   RO         3331    i.PWR_BackupAccessCmd  stm32f10x_pwr.o
    0x08002d70   0x00000048   Code   RO         1452    i.Post0_Process     usb_core.o
    0x08002db8   0x00000050   Code   RO          716    i.PowerOn           usb_pwr.o
    0x08002e08   0x00000100   Code   RO         1378    i.Pulse_capture     pulses.o
    0x08002f08   0x000001ea   Code   RO         1379    i.Pulse_parseSignals  pulses.o
    0x080030f2   0x00000002   PAD
    0x080030f4   0x00000020   Code   RO         3392    i.RCC_AHBPeriphClockCmd  stm32f10x_rcc.o
    0x08003114   0x00000020   Code   RO         3393    i.RCC_APB1PeriphClockCmd  stm32f10x_rcc.o
    0x08003134   0x00000020   Code   RO         3395    i.RCC_APB2PeriphClockCmd  stm32f10x_rcc.o
    0x08003154   0x0000000c   Code   RO         3398    i.RCC_BackupResetCmd  stm32f10x_rcc.o
    0x08003160   0x00000014   Code   RO         3399    i.RCC_ClearFlag     stm32f10x_rcc.o
    0x08003174   0x0000004c   Code   RO         3402    i.RCC_DeInit        stm32f10x_rcc.o
    0x080031c0   0x000000d4   Code   RO         3403    i.RCC_GetClocksFreq  stm32f10x_rcc.o
    0x08003294   0x0000003c   Code   RO         3404    i.RCC_GetFlagStatus  stm32f10x_rcc.o
    0x080032d0   0x00000010   Code   RO         3406    i.RCC_GetSYSCLKSource  stm32f10x_rcc.o
    0x080032e0   0x00000018   Code   RO         3407    i.RCC_HCLKConfig    stm32f10x_rcc.o
    0x080032f8   0x0000004c   Code   RO         3408    i.RCC_HSEConfig     stm32f10x_rcc.o
    0x08003344   0x00000034   Code   RO         3411    i.RCC_LSEConfig     stm32f10x_rcc.o
    0x08003378   0x00000018   Code   RO         3414    i.RCC_PCLK1Config   stm32f10x_rcc.o
    0x08003390   0x00000018   Code   RO         3415    i.RCC_PCLK2Config   stm32f10x_rcc.o
    0x080033a8   0x0000000c   Code   RO         3416    i.RCC_PLLCmd        stm32f10x_rcc.o
    0x080033b4   0x0000001c   Code   RO         3417    i.RCC_PLLConfig     stm32f10x_rcc.o
    0x080033d0   0x0000000c   Code   RO         3418    i.RCC_RTCCLKCmd     stm32f10x_rcc.o
    0x080033dc   0x00000010   Code   RO         3419    i.RCC_RTCCLKConfig  stm32f10x_rcc.o
    0x080033ec   0x00000018   Code   RO         3420    i.RCC_SYSCLKConfig  stm32f10x_rcc.o
    0x08003404   0x0000000c   Code   RO         3421    i.RCC_USBCLKConfig  stm32f10x_rcc.o
    0x08003410   0x0000002e   Code   RO         3422    i.RCC_WaitForHSEStartUp  stm32f10x_rcc.o
    0x0800343e   0x00000002   PAD
    0x08003440   0x00000018   Code   RO         3593    i.RTC_EnterConfigMode  stm32f10x_rtc.o
    0x08003458   0x0000001c   Code   RO         3594    i.RTC_ExitConfigMode  stm32f10x_rtc.o
    0x08003474   0x0000001c   Code   RO         3595    i.RTC_GetCounter    stm32f10x_rtc.o
    0x08003490   0x00000030   Code   RO         3599    i.RTC_ITConfig      stm32f10x_rtc.o
    0x080034c0   0x00000024   Code   RO         3601    i.RTC_SetCounter    stm32f10x_rtc.o
    0x080034e4   0x00000024   Code   RO         3602    i.RTC_SetPrescaler  stm32f10x_rtc.o
    0x08003508   0x00000014   Code   RO         3603    i.RTC_WaitForLastTask  stm32f10x_rtc.o
    0x0800351c   0x00000028   Code   RO         3604    i.RTC_WaitForSynchro  stm32f10x_rtc.o
    0x08003544   0x00000018   Code   RO         3872    i.SPI_Cmd           stm32f10x_spi.o
    0x0800355c   0x00000012   Code   RO         3880    i.SPI_I2S_GetFlagStatus  stm32f10x_spi.o
    0x0800356e   0x00000006   Code   RO         3883    i.SPI_I2S_ReceiveData  stm32f10x_spi.o
    0x08003574   0x00000004   Code   RO         3884    i.SPI_I2S_SendData  stm32f10x_spi.o
    0x08003578   0x0000003c   Code   RO         3885    i.SPI_Init          stm32f10x_spi.o
    0x080035b4   0x00000034   Code   RO         1179    i.SPI_RW            nrf24l01.o
    0x080035e8   0x00000010   Code   RO         1665    i.SetBTABLE         usb_regs.o
    0x080035f8   0x0000004c   Code   RO         1453    i.SetDeviceAddress  usb_core.o
    0x08003644   0x00000024   Code   RO         1679    i.SetEPRxAddr       usb_regs.o
    0x08003668   0x00000050   Code   RO         1680    i.SetEPRxCount      usb_regs.o
    0x080036b8   0x0000003c   Code   RO         1681    i.SetEPRxStatus     usb_regs.o
    0x080036f4   0x0000002c   Code   RO         1682    i.SetEPRxValid      usb_regs.o
    0x08003720   0x00000020   Code   RO         1683    i.SetEPTxAddr       usb_regs.o
    0x08003740   0x00000020   Code   RO         1684    i.SetEPTxCount      usb_regs.o
    0x08003760   0x0000003c   Code   RO         1685    i.SetEPTxStatus     usb_regs.o
    0x0800379c   0x0000002c   Code   RO         1686    i.SetEPTxValid      usb_regs.o
    0x080037c8   0x00000024   Code   RO         1687    i.SetEPType         usb_regs.o
    0x080037ec   0x00000012   Code   RO          776    i.Set_USBClock      bsp_isv2.o
    0x080037fe   0x00000002   PAD
    0x08003800   0x000000b0   Code   RO         1454    i.Setup0_Process    usb_core.o
    0x080038b0   0x00000160   Code   RO         1455    i.Standard_ClearFeature  usb_core.o
    0x08003a10   0x0000002c   Code   RO         1456    i.Standard_GetConfiguration  usb_core.o
    0x08003a3c   0x00000024   Code   RO         1457    i.Standard_GetDescriptorData  usb_core.o
    0x08003a60   0x0000002c   Code   RO         1458    i.Standard_GetInterface  usb_core.o
    0x08003a8c   0x000000f0   Code   RO         1459    i.Standard_GetStatus  usb_core.o
    0x08003b7c   0x00000048   Code   RO         1460    i.Standard_SetConfiguration  usb_core.o
    0x08003bc4   0x00000028   Code   RO         1461    i.Standard_SetDeviceFeature  usb_core.o
    0x08003bec   0x000000c4   Code   RO         1462    i.Standard_SetEndPointFeature  usb_core.o
    0x08003cb0   0x0000006c   Code   RO         1463    i.Standard_SetInterface  usb_core.o
    0x08003d1c   0x0000026c   Code   RO         1276    i.Task_LocalStatus  tasks_usbcli.o
    0x08003f88   0x00000158   Code   RO         1277    i.Task_MsgProc      tasks_usbcli.o
    0x080040e0   0x0000007c   Code   RO         1278    i.Task_UsbRecv      tasks_usbcli.o
    0x0800415c   0x00000030   Code   RO         1039    i.Timer_isStepping  common.o
    0x0800418c   0x00000048   Code   RO         1041    i.Timer_start       common.o
    0x080041d4   0x00000044   Code   RO         1042    i.Timer_stop        common.o
    0x08004218   0x00000022   Code   RO         4561    i.USART_ClockInit   stm32f10x_usart.o
    0x0800423a   0x00000018   Code   RO         4563    i.USART_Cmd         stm32f10x_usart.o
    0x08004252   0x00000002   PAD
    0x08004254   0x0000009c   Code   RO         4570    i.USART_Init        stm32f10x_usart.o
    0x080042f0   0x0000005a   Code   RO          777    i.USART_open        bsp_isv2.o
    0x0800434a   0x00000016   Code   RO          778    i.USB_Cable_Config  bsp_isv2.o
    0x08004360   0x0000003c   Code   RO         1564    i.USB_Init          usb_init.o
    0x0800439c   0x00000078   Code   RO          585    i.USB_Istr          usb_istr.o
    0x08004414   0x00000038   Code   RO         1618    i.UserToPMABufferCopy  usb_mem.o
    0x0800444c   0x00000064   Code   RO          610    i.Virtual_Com_Port_Data_Setup  usb_prop.o
    0x080044b0   0x00000014   Code   RO          611    i.Virtual_Com_Port_GetConfigDescriptor  usb_prop.o
    0x080044c4   0x00000014   Code   RO          612    i.Virtual_Com_Port_GetDeviceDescriptor  usb_prop.o
    0x080044d8   0x0000001c   Code   RO          613    i.Virtual_Com_Port_GetLineCoding  usb_prop.o
    0x080044f4   0x00000020   Code   RO          614    i.Virtual_Com_Port_GetStringDescriptor  usb_prop.o
    0x08004514   0x00000016   Code   RO          615    i.Virtual_Com_Port_Get_Interface_Setting  usb_prop.o
    0x0800452a   0x00000002   PAD
    0x0800452c   0x00000028   Code   RO          616    i.Virtual_Com_Port_NoData_Setup  usb_prop.o
    0x08004554   0x000000d0   Code   RO          617    i.Virtual_Com_Port_Reset  usb_prop.o
    0x08004624   0x0000001c   Code   RO          618    i.Virtual_Com_Port_SetLineCoding  usb_prop.o
    0x08004640   0x00000014   Code   RO          619    i.Virtual_Com_Port_Status_In  usb_prop.o
    0x08004654   0x00000002   Code   RO          620    i.Virtual_Com_Port_Status_Out  usb_prop.o
    0x08004656   0x00000002   PAD
    0x08004658   0x00000068   Code   RO          621    i.Virtual_Com_Port_init  usb_prop.o
    0x080046c0   0x00000028   Code   RO         5847    i.__0sprintf$8      mc_w.l(printf8.o)(mc_w.l)
    0x080046e8   0x0000000e   Code   RO         5932    i.__scatterload_copy  mc_w.l(handlers.o)(mc_w.l)
    0x080046f6   0x00000002   Code   RO         5933    i.__scatterload_null  mc_w.l(handlers.o)(mc_w.l)
    0x080046f8   0x0000000e   Code   RO         5934    i.__scatterload_zeroinit  mc_w.l(handlers.o)(mc_w.l)
    0x08004706   0x00000002   PAD
    0x08004708   0x00000428   Code   RO         5852    i._printf_core      mc_w.l(printf8.o)(mc_w.l)
    0x08004b30   0x00000026   Code   RO         5853    i._printf_post_padding  mc_w.l(printf8.o)(mc_w.l)
    0x08004b56   0x0000002e   Code   RO         5854    i._printf_pre_padding  mc_w.l(printf8.o)(mc_w.l)
    0x08004b84   0x0000000a   Code   RO         5856    i._sputc            mc_w.l(printf8.o)(mc_w.l)
    0x08004b8e   0x00000022   Code   RO         1043    i.delayXmsec        common.o
    0x08004bb0   0x0000001a   Code   RO         1044    i.delayXusec        common.o
    0x08004bca   0x0000003e   Code   RO         1045    i.hex2int           common.o
    0x08004c08   0x00000036   Code   RO         1047    i.hexchval          common.o
    0x08004c3e   0x00000002   PAD
    0x08004c40   0x0000001c   Code   RO          781    i.irRecvBit         bsp_isv2.o
    0x08004c5c   0x00000044   Code   RO         1279    i.main              tasks_usbcli.o
    0x08004ca0   0x0000001c   Code   RO          782    i.motionState       bsp_isv2.o
    0x08004cbc   0x00000014   Code   RO         1180    i.nRF24L01_RW_Reg   nrf24l01.o
    0x08004cd0   0x000000e8   Code   RO         1182    i.nRF24L01_TxPacket  nrf24l01.o
    0x08004db8   0x00000022   Code   RO         1183    i.nRF24L01_config   nrf24l01.o
    0x08004dda   0x000001b4   Code   RO         1184    i.nRF24L01_init     nrf24l01.o
    0x08004f8e   0x00000042   Code   RO         1185    i.nRF24L01_readBuff  nrf24l01.o
    0x08004fd0   0x0000001c   Code   RO         1186    i.nRF24L01_readReg  nrf24l01.o
    0x08004fec   0x00000038   Code   RO         1187    i.nRF24L01_setModeRX  nrf24l01.o
    0x08005024   0x00000088   Code   RO         1188    i.nRF24L01_setModeTX  nrf24l01.o
    0x080050ac   0x00000040   Code   RO         1189    i.nRF24L01_writeBuff  nrf24l01.o
    0x080050ec   0x00000014   Code   RO         1190    i.nRF24L01_writeReg  nrf24l01.o
    0x08005100   0x000000e0   Code   RO         1191    i.processIRQ_nRF24L01  nrf24l01.o
    0x080051e0   0x0000002a   Code   RO         1280    i.sendMsgToUsb      tasks_usbcli.o
    0x0800520a   0x00000002   PAD
    0x0800520c   0x00000144   Code   RO         1281    i.sendTxtMsgToNRF   tasks_usbcli.o
    0x08005350   0x000000c7   Data   RO          511    .constdata          usb_desc.o
    0x08005417   0x00000001   PAD
    0x08005418   0x00000038   Data   RO          784    .constdata          bsp_isv2.o
    0x08005450   0x00000100   Data   RO         4881    .constdata          os_core.o
    0x08005550   0x00000020   Data   RO         5930    Region$$Table       anon$$obj.o


    Execution Region RW_IRAM1 (Base: 0x20000000, Size: 0x00001528, Max: 0x00004c00, ABSOLUTE, COMPRESSED[0x000000a4])

    Base Addr    Size         Type   Attr      Idx    E Section Name        Object

    0x20000000   0x0000000c   Data   RW           59    .data               int_is.o
    0x2000000c   0x00000008   Data   RW          556    .data               usb_endp.o
    0x20000014   0x0000003e   Data   RW          586    .data               usb_istr.o
    0x20000052   0x00000002   PAD
    0x20000054   0x00000094   Data   RW          622    .data               usb_prop.o
    0x200000e8   0x00000004   Data   RW          720    .data               usb_pwr.o
    0x200000ec   0x00000004   Data   RW         1055    .data               common.o
    0x200000f0   0x00000001   Data   RW         1192    .data               nrf24l01.o
    0x200000f1   0x00000003   PAD
    0x200000f4   0x00000046   Data   RW         1283    .data               tasks_usbcli.o
    0x2000013a   0x00000002   Data   RW         1464    .data               usb_core.o
    0x2000013c   0x00000014   Data   RW         1566    .data               usb_init.o
    0x20000150   0x00000004   Data   RW         1589    .data               usb_int.o
    0x20000154   0x00000014   Data   RW         3423    .data               stm32f10x_rcc.o
    0x20000168   0x00000040   Data   RW         4882    .data               os_core.o
    0x200001a8   0x0000014c   Zero   RW           58    .bss                int_is.o
    0x200002f4   0x00000040   Zero   RW          555    .bss                usb_endp.o
    0x20000334   0x00000004   PAD
    0x20000338   0x00000010   Zero   RW          783    .bss                bsp_isv2.o
    0x20000348   0x000000ca   Zero   RW         1053    .bss                common.o
    0x20000412   0x00000002   PAD
    0x20000414   0x00000659   Zero   RW         1282    .bss                tasks_usbcli.o
    0x20000a6d   0x00000003   PAD
    0x20000a70   0x0000001c   Zero   RW         1565    .bss                usb_init.o
    0x20000a8c   0x00000a9c   Zero   RW         4880    .bss                os_core.o


    Execution Region ARM_LIB_HEAP (Base: 0x20004700, Size: 0x00000200, Max: 0x00000200, ABSOLUTE, UNINIT)

    Base Addr    Size         Type   Attr      Idx    E Section Name        Object

    0x20004700   0x00000200   Zero   RW            1    ARM_LIB_HEAP.bss    anon$$obj.o


    Execution Region ARM_LIB_STACK (Base: 0x20004900, Size: 0x00000200, Max: 0x00000200, ABSOLUTE, UNINIT)

    Base Addr    Size         Type   Attr      Idx    E Section Name        Object

    0x20004900   0x00000200   Zero   RW            2    ARM_LIB_STACK.bss   anon$$obj.o


==============================================================================

Image component sizes


      Code (inc. data)   RO Data    RW Data    ZI Data      Debug   Object Name

       282          0          0          0          0          0   1wire.o
      1788         78         56          0         16          0   bsp_isv2.o
       364         34          0          4        202          0   common.o
        42          0          0          0          0          0   cpu_a.o
       178          0          0          0          0          0   ds18b20.o
         8          4          0          0          0          0   init.o
       706         46          0         12        332          0   int_is.o
       172         32          0          0          0          0   misc.o
      1368         18          0          1          0          0   nrf24l01.o
      1842        346        256         64       2716          0   os_core.o
       164         32          0          0          0          0   os_cpu_a.o
       292          6          0          0          0          0   os_cpu_c.o
        76          8          0          0          0          0   os_flag.o
       822         60          0          0          0          0   os_task.o
       280         28          0          0          0          0   os_time.o
       746          6          0          0          0          0   pulses.o
       412         20          0          0          0          0   stm32f10x_adc.o
        48         10          0          0          0          0   stm32f10x_bkp.o
       508         40          0          0          0          0   stm32f10x_dma.o
       352         60          0          0          0          0   stm32f10x_exti.o
        52         12          0          0          0          0   stm32f10x_flash.o
       374          4          0          0          0          0   stm32f10x_gpio.o
        12          6          0          0          0          0   stm32f10x_pwr.o
       842        136          0         20          0          0   stm32f10x_rcc.o
       260         66          0          0          0          0   stm32f10x_rtc.o
       112          0          0          0          0          0   stm32f10x_spi.o
       214          6          0          0          0          0   stm32f10x_usart.o
      1902        264          0         70       1625          0   tasks_usbcli.o
      2882        266          0          2          0          0   usb_core.o
         0          0        199          0          0          0   usb_desc.o
        56         12          0          8         64          0   usb_endp.o
        60         24          0         20         28          0   usb_init.o
       564         36          0          4          0          0   usb_int.o
       120         22          0         62          0          0   usb_istr.o
        92          8          0          0          0          0   usb_mem.o
       624         96          0        148          0          0   usb_prop.o
        80         16          0          4          0          0   usb_pwr.o
       704        110          0          0          0          0   usb_regs.o
       248        236          0          0          0          0   vectors.o

    ----------------------------------------------------------------------
     19686       2148        544        424       6016          0   Object Totals
         0          0         32          0       1024          0   (incl. Generated)
        38          0          1          5          9          3   (incl. Padding)

    ----------------------------------------------------------------------

      Code (inc. data)   RO Data    RW Data    ZI Data      Debug   Library Member Name

        92          0          0          0          0          0   __dczerorl2.o
         0          0          0          0          0          0   entry.o
         8          4          0          0          0          0   entry4.o
         4          0          0          0          0          0   entry5.o
         8          4          0          0          0          0   entry7.o
        30          0          0          0          0          0   handlers.o
        36          8          0          0          0          0   init.o
        30          0          0          0          0          0   llshl.o
        32          0          0          0          0          0   llushr.o
        38          0          0          0          0          0   memseta.o
      1198         50          0          0          0          0   printf8.o
        16          0          0          0          0          0   strlen.o
        44          0          0          0          0          0   strstr.o
       102          0          0          0          0          0   uldiv.o

    ----------------------------------------------------------------------
      1642         66          0          0          0          0   Library Totals
         4          0          0          0          0          0   (incl. Padding)

    ----------------------------------------------------------------------

      Code (inc. data)   RO Data    RW Data    ZI Data      Debug   Library Name

      1638         66          0          0          0        972   mc_w.l

    ----------------------------------------------------------------------
      1642         66          0          0          0          0   Library Totals

    ----------------------------------------------------------------------

==============================================================================


      Code (inc. data)   RO Data    RW Data    ZI Data      Debug   

     21328       2214        544        424       6016     476684   Grand Totals
     21328       2214        544        164       6016     476684   ELF Image Totals (compressed)
     21328       2214        544        164          0          0   ROM Totals

==============================================================================

    Total RO  Size (Code + RO Data)                21872 (  21.36kB)
    Total RW  Size (RW Data + ZI Data)              6440 (   6.29kB)
    Total ROM Size (Code + RO Data + RW Data)      22036 (  21.52kB)

==============================================================================

